(lp0
(lp1
csympy.core.mul
Mul
p2
(csympy.core.numbers
Float
p3
((I0
S'1'
p4
I-2
I1
tp5
tp6
Rp7
(dp8
S'_prec'
p9
I53
sbcsympy.core.power
Pow
p10
(csympy.core.numbers
Pi
p11
(tRp12
(dp13
bcsympy.core.numbers
NegativeOne
p14
(tRp15
(dp16
btp17
Rp18
(dp19
bg10
(csympy.core.add
Add
p20
(g15
csympy.core.symbol
Symbol
p21
(S'nu'
p22
tp23
Rp24
(dp25
S'_assumptions'
p26
ccopy_reg
_reconstructor
p27
(csympy.core.assumptions
StdFactKB
p28
c__builtin__
dict
p29
(dp30
S'commutative'
p31
I01
sS'antihermitian'
p32
NsS'nonpositive'
p33
NsS'positive'
p34
NsS'negative'
p35
NsS'nonnegative'
p36
NsS'algebraic'
p37
NsS'zero'
p38
NsS'complex'
p39
NsS'rational'
p40
NsS'infinite'
p41
NsS'hermitian'
p42
NsS'finite'
p43
NsS'irrational'
p44
Nstp45
Rp46
sbtp47
Rp48
(dp49
bg15
tp50
Rp51
(dp52
bg10
(g20
(g10
(g20
(g21
(S'obsx'
p53
tp54
Rp55
(dp56
g26
g27
(g28
g29
(dp57
S'real'
p58
Nsg44
Nsg32
Nsg33
Nsg37
Nsg42
Nsg41
NsS'integer'
p59
NsS'imaginary'
p60
NsS'odd'
p61
NsS'even'
p62
Nsg31
I01
sg38
Nsg34
Nsg35
Nsg36
Nsg39
Nsg40
Nsg43
Nstp63
Rp64
sbg2
(g15
g21
(S'srcx'
p65
tp66
Rp67
(dp68
g26
g27
(g28
g29
(dp69
g58
Nsg44
Nsg32
Nsg33
Nsg37
Nsg42
Nsg41
Nsg60
Nsg31
I01
sg38
Nsg34
Nsg35
Nsg36
Nsg39
Nsg40
Nsg43
Nstp70
Rp71
sbtp72
Rp73
(dp74
btp75
Rp76
(dp77
bcsympy.core.numbers
Integer
p78
(I2
tp79
Rp80
(dp81
btp82
Rp83
(dp84
bg10
(g20
(g21
(S'obsy'
p85
tp86
Rp87
(dp88
g26
g27
(g28
g29
(dp89
g58
Nsg44
Nsg32
Nsg33
Nsg37
Nsg42
Nsg41
Nsg59
Nsg60
Nsg61
Nsg62
Nsg31
I01
sg38
Nsg34
Nsg35
Nsg36
Nsg39
Nsg40
Nsg43
Nstp90
Rp91
sbg2
(g15
g21
(S'srcy'
p92
tp93
Rp94
(dp95
g26
g27
(g28
g29
(dp96
g58
Nsg44
Nsg32
Nsg33
Nsg37
Nsg42
Nsg41
Nsg60
Nsg31
I01
sg38
Nsg34
Nsg35
Nsg36
Nsg39
Nsg40
Nsg43
Nstp97
Rp98
sbtp99
Rp100
(dp101
btp102
Rp103
(dp104
bg80
tp105
Rp106
(dp107
btp108
Rp109
(dp110
bg15
tp111
Rp112
(dp113
bg20
(g2
(g20
(g15
g2
(g80
g24
tp114
Rp115
(dp116
btp117
Rp118
(dp119
bg20
(g2
(g21
(S'n1'
p120
tp121
Rp122
(dp123
g26
g27
(g28
g29
(dp124
g44
Nsg32
Nsg33
Nsg34
Nsg35
Nsg36
Nsg37
Nsg38
Nsg39
Nsg40
Nsg41
Nsg42
Nsg43
Nsg31
I01
stp125
Rp126
sbg76
tp127
Rp128
(dp129
bg2
(g21
(S'n2'
p130
tp131
Rp132
(dp133
g26
g27
(g28
g29
(dp134
g44
Nsg32
Nsg33
Nsg34
Nsg35
Nsg36
Nsg37
Nsg38
Nsg39
Nsg40
Nsg41
Nsg42
Nsg43
Nsg31
I01
stp135
Rp136
sbg103
tp137
Rp138
(dp139
btp140
Rp141
(dp142
btp143
Rp144
(dp145
bg2
(g78
(I-2
tp146
Rp147
(dp148
bg83
g112
g141
tp149
Rp150
(dp151
btp152
Rp153
(dp154
btp155
Rp156
(dp157
bag2
(g3
((I1
g4
I-2
I1
tp158
tp159
Rp160
(dp161
g9
I53
sbg18
g51
g112
g20
(g2
(g118
g20
(g2
(g132
g76
tp162
Rp163
(dp164
bg2
(g15
g122
g103
tp165
Rp166
(dp167
btp168
Rp169
(dp170
btp171
Rp172
(dp173
bg2
(g80
g112
g76
g103
g141
tp174
Rp175
(dp176
btp177
Rp178
(dp179
btp180
Rp181
(dp182
baa(lp183
g2
(g3
((I0
g4
I-2
I1
tp184
tp185
Rp186
(dp187
g9
I53
sbg18
g51
g112
g20
(g172
g2
(g147
g112
g76
g103
g141
tp188
Rp189
(dp190
btp191
Rp192
(dp193
btp194
Rp195
(dp196
bag2
(g3
((I0
g4
I-2
I1
tp197
tp198
Rp199
(dp200
g9
I53
sbg18
g51
g112
g20
(g144
g2
(g147
g106
g112
g141
tp201
Rp202
(dp203
btp204
Rp205
(dp206
btp207
Rp208
(dp209
baa.