(lp0
(lp1
(lp2
(lp3
csympy.core.mul
Mul
p4
(csympy.core.numbers
Float
p5
((I1
S'1'
p6
I-2
I1
tp7
tp8
Rp9
(dp10
S'_prec'
p11
I53
sbcsympy.core.power
Pow
p12
(csympy.core.numbers
Pi
p13
(tRp14
(dp15
bcsympy.core.numbers
NegativeOne
p16
(tRp17
(dp18
btp19
Rp20
(dp21
bg12
(csympy.core.add
Add
p22
(g17
csympy.core.symbol
Symbol
p23
(S'nu'
p24
tp25
Rp26
(dp27
S'_assumptions'
p28
ccopy_reg
_reconstructor
p29
(csympy.core.assumptions
StdFactKB
p30
c__builtin__
dict
p31
(dp32
S'commutative'
p33
I01
sS'antihermitian'
p34
NsS'nonpositive'
p35
NsS'positive'
p36
NsS'negative'
p37
NsS'nonnegative'
p38
NsS'algebraic'
p39
NsS'zero'
p40
NsS'complex'
p41
NsS'rational'
p42
NsS'infinite'
p43
NsS'hermitian'
p44
NsS'finite'
p45
NsS'irrational'
p46
Nstp47
Rp48
sbtp49
Rp50
(dp51
bg17
tp52
Rp53
(dp54
bg12
(g22
(g12
(g22
(g23
(S'obslx'
p55
tp56
Rp57
(dp58
g28
g29
(g30
g31
(dp59
S'real'
p60
Nsg46
Nsg34
Nsg35
Nsg39
Nsg44
Nsg43
NsS'imaginary'
p61
Nsg33
I01
sg40
Nsg36
Nsg37
Nsg38
Nsg41
Nsg42
Nsg45
Nstp62
Rp63
sbg4
(g17
g23
(S'obsrx'
p64
tp65
Rp66
(dp67
g28
g29
(g30
g31
(dp68
g60
Nsg46
Nsg34
Nsg35
Nsg39
Nsg44
Nsg43
Nsg61
Nsg33
I01
sg40
Nsg36
Nsg37
Nsg38
Nsg41
Nsg42
Nsg45
Nstp69
Rp70
sbtp71
Rp72
(dp73
btp74
Rp75
(dp76
bcsympy.core.numbers
Integer
p77
(I2
tp78
Rp79
(dp80
btp81
Rp82
(dp83
bg12
(g22
(g23
(S'obsly'
p84
tp85
Rp86
(dp87
g28
g29
(g30
g31
(dp88
g60
Nsg46
Nsg34
Nsg35
Nsg39
Nsg44
Nsg43
Nsg61
Nsg33
I01
sg40
Nsg36
Nsg37
Nsg38
Nsg41
Nsg42
Nsg45
Nstp89
Rp90
sbg4
(g17
g23
(S'obsry'
p91
tp92
Rp93
(dp94
g28
g29
(g30
g31
(dp95
g60
Nsg46
Nsg34
Nsg35
Nsg39
Nsg44
Nsg43
Nsg61
Nsg33
I01
sg40
Nsg36
Nsg37
Nsg38
Nsg41
Nsg42
Nsg45
Nstp96
Rp97
sbtp98
Rp99
(dp100
btp101
Rp102
(dp103
bg79
tp104
Rp105
(dp106
btp107
Rp108
(dp109
bcsympy.core.numbers
Half
p110
(tRp111
(dp112
btp113
Rp114
(dp115
bg12
(g22
(g12
(g22
(g23
(S'srclx'
p116
tp117
Rp118
(dp119
g28
g29
(g30
g31
(dp120
g60
Nsg46
Nsg34
Nsg35
Nsg39
Nsg44
Nsg43
NsS'integer'
p121
Nsg61
NsS'odd'
p122
NsS'even'
p123
Nsg33
I01
sg40
Nsg36
Nsg37
Nsg38
Nsg41
Nsg42
Nsg45
Nstp124
Rp125
sbg4
(g17
g23
(S'srcrx'
p126
tp127
Rp128
(dp129
g28
g29
(g30
g31
(dp130
g60
Nsg46
Nsg34
Nsg35
Nsg39
Nsg44
Nsg43
Nsg61
Nsg33
I01
sg40
Nsg36
Nsg37
Nsg38
Nsg41
Nsg42
Nsg45
Nstp131
Rp132
sbtp133
Rp134
(dp135
btp136
Rp137
(dp138
bg79
tp139
Rp140
(dp141
bg12
(g22
(g23
(S'srcly'
p142
tp143
Rp144
(dp145
g28
g29
(g30
g31
(dp146
g60
Nsg46
Nsg34
Nsg35
Nsg39
Nsg44
Nsg43
Nsg121
Nsg61
Nsg122
Nsg123
Nsg33
I01
sg40
Nsg36
Nsg37
Nsg38
Nsg41
Nsg42
Nsg45
Nstp147
Rp148
sbg4
(g17
g23
(S'srcry'
p149
tp150
Rp151
(dp152
g28
g29
(g30
g31
(dp153
g60
Nsg46
Nsg34
Nsg35
Nsg39
Nsg44
Nsg43
Nsg61
Nsg33
I01
sg40
Nsg36
Nsg37
Nsg38
Nsg41
Nsg42
Nsg45
Nstp154
Rp155
sbtp156
Rp157
(dp158
btp159
Rp160
(dp161
bg79
tp162
Rp163
(dp164
btp165
Rp166
(dp167
bg111
tp168
Rp169
(dp170
bg12
(g22
(g12
(g22
(g4
(g57
g22
(g17
g23
(S'obsxhat'
p171
tp172
Rp173
(dp174
g28
g29
(g30
g31
(dp175
g60
Nsg46
Nsg34
Nsg35
Nsg39
Nsg40
Nsg43
Nsg121
Nsg44
Nsg61
Nsg123
Nsg33
I01
sg36
Nsg37
Nsg38
Nsg41
Nsg42
Nsg45
Nstp176
Rp177
sbtp178
Rp179
(dp180
btp181
Rp182
(dp183
bg4
(g128
g23
(S'srcxhat'
p184
tp185
Rp186
(dp187
g28
g29
(g30
g31
(dp188
g60
Nsg46
Nsg34
Nsg35
Nsg39
Nsg44
Nsg43
Nsg121
Nsg61
Nsg123
Nsg33
I01
sg40
Nsg36
Nsg37
Nsg38
Nsg41
Nsg42
Nsg45
Nstp189
Rp190
sbtp191
Rp192
(dp193
bg4
(g17
g66
g173
tp194
Rp195
(dp196
bg4
(g17
g118
g22
(g17
g186
tp197
Rp198
(dp199
btp200
Rp201
(dp202
btp203
Rp204
(dp205
bg79
tp206
Rp207
(dp208
bg12
(g22
(g4
(g86
g179
tp209
Rp210
(dp211
bg4
(g151
g186
tp212
Rp213
(dp214
bg4
(g17
g93
g173
tp215
Rp216
(dp217
bg4
(g17
g144
g198
tp218
Rp219
(dp220
btp221
Rp222
(dp223
bg79
tp224
Rp225
(dp226
btp227
Rp228
(dp229
bg17
tp230
Rp231
(dp232
bg179
g198
g22
(g4
(g17
g22
(g17
g4
(g79
g26
tp233
Rp234
(dp235
btp236
Rp237
(dp238
bg22
(g4
(g12
(g166
csympy.core.numbers
Rational
p239
(I-1
I2
tp240
Rp241
(dp242
btp243
Rp244
(dp245
bg137
g222
tp246
Rp247
(dp248
bg4
(g17
g244
g160
g204
tp249
Rp250
(dp251
btp252
Rp253
(dp254
btp255
Rp256
(dp257
bg4
(g79
g231
g207
g253
tp258
Rp259
(dp260
btp261
Rp262
(dp263
btp264
Rp265
(dp266
bag4
(g5
((I0
g6
I-2
I1
tp267
tp268
Rp269
(dp270
g11
I53
sbg186
g20
g53
g114
g169
g231
g179
g262
tp271
Rp272
(dp273
baa(lp274
g4
(g5
((I0
g6
I-2
I1
tp275
tp276
Rp277
(dp278
g11
I53
sbg173
g20
g53
g114
g169
g231
g198
g262
tp279
Rp280
(dp281
bag4
(g5
((I1
g6
I-2
I1
tp282
tp283
Rp284
(dp285
g11
I53
sbg173
g186
g20
g53
g114
g169
g231
g262
tp286
Rp287
(dp288
baaa(lp289
(lp290
g4
(g5
((I1
g6
I-2
I1
tp291
tp292
Rp293
(dp294
g11
I53
sbg20
g53
g114
g169
g231
g179
g198
g22
(g4
(g237
g22
(g4
(g244
g137
g204
tp295
Rp296
(dp297
bg4
(g244
g160
g222
tp298
Rp299
(dp300
btp301
Rp302
(dp303
btp304
Rp305
(dp306
bg4
(g79
g231
g253
g204
g222
tp307
Rp308
(dp309
btp310
Rp311
(dp312
btp313
Rp314
(dp315
bag4
(g5
((I0
g6
I-2
I1
tp316
tp317
Rp318
(dp319
g11
I53
sbg186
g20
g53
g114
g169
g231
g179
g311
tp320
Rp321
(dp322
baa(lp323
g4
(g5
((I0
g6
I-2
I1
tp324
tp325
Rp326
(dp327
g11
I53
sbg173
g20
g53
g114
g169
g231
g198
g311
tp328
Rp329
(dp330
bag4
(g5
((I1
g6
I-2
I1
tp331
tp332
Rp333
(dp334
g11
I53
sbg173
g186
g20
g53
g114
g169
g231
g311
tp335
Rp336
(dp337
baaaa(lp338
(lp339
(lp340
g4
(g5
((I1
g6
I-2
I1
tp341
tp342
Rp343
(dp344
g11
I53
sbg20
g53
g114
g169
g231
g179
g198
g22
(g4
(g17
g237
g302
tp345
Rp346
(dp347
bg4
(g79
g231
g253
g204
g222
tp348
Rp349
(dp350
btp351
Rp352
(dp353
btp354
Rp355
(dp356
bag4
(g5
((I0
g6
I-2
I1
tp357
tp358
Rp359
(dp360
g11
I53
sbg186
g20
g53
g114
g169
g231
g179
g352
tp361
Rp362
(dp363
baa(lp364
g4
(g5
((I0
g6
I-2
I1
tp365
tp366
Rp367
(dp368
g11
I53
sbg173
g20
g53
g114
g169
g231
g198
g352
tp369
Rp370
(dp371
bag4
(g5
((I1
g6
I-2
I1
tp372
tp373
Rp374
(dp375
g11
I53
sbg173
g186
g20
g53
g114
g169
g231
g352
tp376
Rp377
(dp378
baaa(lp379
(lp380
g4
(g5
((I1
g6
I-2
I1
tp381
tp382
Rp383
(dp384
g11
I53
sbg20
g53
g114
g169
g231
g179
g198
g22
(g4
(g17
g237
g253
tp385
Rp386
(dp387
bg4
(g79
g231
g225
g253
tp388
Rp389
(dp390
btp391
Rp392
(dp393
btp394
Rp395
(dp396
bag4
(g5
((I0
g6
I-2
I1
tp397
tp398
Rp399
(dp400
g11
I53
sbg186
g20
g53
g114
g169
g231
g179
g392
tp401
Rp402
(dp403
baa(lp404
g4
(g5
((I0
g6
I-2
I1
tp405
tp406
Rp407
(dp408
g11
I53
sbg173
g20
g53
g114
g169
g231
g198
g392
tp409
Rp410
(dp411
bag4
(g5
((I1
g6
I-2
I1
tp412
tp413
Rp414
(dp415
g11
I53
sbg173
g186
g20
g53
g114
g169
g231
g392
tp416
Rp417
(dp418
baaaa.