(lp0
(lp1
(lp2
(lp3
csympy.core.mul
Mul
p4
(csympy.core.numbers
Float
p5
((I0
S'15555555555555'
p6
I-57
I53
tp7
tp8
Rp9
(dp10
S'_prec'
p11
I53
sbcsympy.core.power
Pow
p12
(csympy.core.numbers
Pi
p13
(tRp14
(dp15
bcsympy.core.numbers
NegativeOne
p16
(tRp17
(dp18
btp19
Rp20
(dp21
bg12
(csympy.core.symbol
Symbol
p22
(S'Lp'
p23
tp24
Rp25
(dp26
S'_assumptions'
p27
ccopy_reg
_reconstructor
p28
(csympy.core.assumptions
StdFactKB
p29
c__builtin__
dict
p30
(dp31
S'real'
p32
NsS'irrational'
p33
NsS'antihermitian'
p34
NsS'nonpositive'
p35
NsS'algebraic'
p36
NsS'hermitian'
p37
NsS'infinite'
p38
NsS'integer'
p39
NsS'imaginary'
p40
NsS'odd'
p41
NsS'even'
p42
NsS'commutative'
p43
I01
sS'zero'
p44
NsS'positive'
p45
NsS'negative'
p46
NsS'nonnegative'
p47
NsS'complex'
p48
NsS'rational'
p49
NsS'finite'
p50
Nstp51
Rp52
sbcsympy.core.numbers
Integer
p53
(I2
tp54
Rp55
(dp56
btp57
Rp58
(dp59
bg12
(csympy.core.add
Add
p60
(g17
g22
(S'nu'
p61
tp62
Rp63
(dp64
g27
g28
(g29
g30
(dp65
S'commutative'
p66
I01
stp67
Rp68
sbtp69
Rp70
(dp71
bg17
tp72
Rp73
(dp74
bg12
(g60
(g12
(g60
(g22
(S'obslx'
p75
tp76
Rp77
(dp78
g27
g28
(g29
g30
(dp79
g32
Nsg33
Nsg34
Nsg35
Nsg36
Nsg44
Nsg38
Nsg39
Nsg37
Nsg41
Nsg40
Nsg42
Nsg43
I01
sg45
Nsg46
Nsg47
Nsg48
Nsg49
Nsg50
Nstp80
Rp81
sbg4
(g17
g22
(S'obsrx'
p82
tp83
Rp84
(dp85
g27
g28
(g29
g30
(dp86
g32
Nsg33
Nsg34
Nsg35
Nsg36
Nsg44
Nsg38
Nsg39
Nsg37
Nsg41
Nsg40
Nsg42
Nsg43
I01
sg45
Nsg46
Nsg47
Nsg48
Nsg49
Nsg50
Nstp87
Rp88
sbtp89
Rp90
(dp91
btp92
Rp93
(dp94
bg55
tp95
Rp96
(dp97
bg12
(g60
(g22
(S'obsly'
p98
tp99
Rp100
(dp101
g27
g28
(g29
g30
(dp102
g32
Nsg33
Nsg34
Nsg35
Nsg36
Nsg44
Nsg38
Nsg39
Nsg37
Nsg41
Nsg40
Nsg42
Nsg43
I01
sg45
Nsg46
Nsg47
Nsg48
Nsg49
Nsg50
Nstp103
Rp104
sbg4
(g17
g22
(S'obsry'
p105
tp106
Rp107
(dp108
g27
g28
(g29
g30
(dp109
g32
Nsg33
Nsg34
Nsg35
Nsg36
Nsg44
Nsg38
Nsg39
Nsg37
Nsg41
Nsg40
Nsg42
Nsg43
I01
sg45
Nsg46
Nsg47
Nsg48
Nsg49
Nsg50
Nstp110
Rp111
sbtp112
Rp113
(dp114
btp115
Rp116
(dp117
bg55
tp118
Rp119
(dp120
btp121
Rp122
(dp123
bcsympy.core.numbers
Half
p124
(tRp125
(dp126
btp127
Rp128
(dp129
bg12
(g60
(g12
(g60
(g22
(S'srclx'
p130
tp131
Rp132
(dp133
g27
g28
(g29
g30
(dp134
g43
I01
stp135
Rp136
sbg4
(g17
g22
(S'srcrx'
p137
tp138
Rp139
(dp140
g27
g28
(g29
g30
(dp141
g33
Nsg34
Nsg35
Nsg45
Nsg46
Nsg47
Nsg36
Nsg44
Nsg48
Nsg49
Nsg38
Nsg37
Nsg50
Nsg43
I01
stp142
Rp143
sbtp144
Rp145
(dp146
btp147
Rp148
(dp149
bg55
tp150
Rp151
(dp152
bg12
(g60
(g22
(S'srcly'
p153
tp154
Rp155
(dp156
g27
g28
(g29
g30
(dp157
g43
I01
stp158
Rp159
sbg4
(g17
g22
(S'srcry'
p160
tp161
Rp162
(dp163
g27
g28
(g29
g30
(dp164
g43
I01
sg34
Nsg35
Nsg45
Nsg46
Nsg47
Nsg36
Nsg37
Nsg48
Nsg49
Nsg38
Nsg50
Nsg44
Nsg33
Nstp165
Rp166
sbtp167
Rp168
(dp169
btp170
Rp171
(dp172
bg55
tp173
Rp174
(dp175
btp176
Rp177
(dp178
bg125
tp179
Rp180
(dp181
bg12
(g60
(g12
(g60
(g4
(g93
csympy.functions.elementary.trigonometric
cos
p182
(g22
(S'theta'
p183
tp184
Rp185
(dp186
g27
g28
(g29
g30
(dp187
g32
NsS'nonzero'
p188
Nsg43
I01
sg45
Nsg46
Nsg44
Nsg48
Nsg49
Nstp189
Rp190
sbtp191
Rp192
(dp193
btp194
Rp195
(dp196
bg4
(g60
(g84
g145
tp197
Rp198
(dp199
bcsympy.functions.elementary.trigonometric
sin
p200
(g185
tp201
Rp202
(dp203
btp204
Rp205
(dp206
btp207
Rp208
(dp209
bg55
tp210
Rp211
(dp212
bg12
(g60
(g4
(g116
g192
tp213
Rp214
(dp215
bg4
(g60
(g107
g168
tp216
Rp217
(dp218
bg202
tp219
Rp220
(dp221
btp222
Rp223
(dp224
bg55
tp225
Rp226
(dp227
btp228
Rp229
(dp230
bg53
(I-2
tp231
Rp232
(dp233
btp234
Rp235
(dp236
bg60
(g53
(I-3
tp237
Rp238
(dp239
bg4
(g55
g25
g202
tp240
Rp241
(dp242
btp243
Rp244
(dp245
bg60
(g4
(g55
g211
tp246
Rp247
(dp248
bg4
(g17
g60
(g17
g4
(g55
g63
tp249
Rp250
(dp251
btp252
Rp253
(dp254
bg229
tp255
Rp256
(dp257
btp258
Rp259
(dp260
bg60
(g4
(g22
(S'N1'
p261
tp262
Rp263
(dp264
g27
g28
(g29
g30
(dp265
S'commutative'
p266
I01
stp267
Rp268
sbg208
tp269
Rp270
(dp271
bg4
(g22
(S'N2'
p272
tp273
Rp274
(dp275
g27
g28
(g29
g30
(dp276
g266
I01
stp277
Rp278
sbg223
tp279
Rp280
(dp281
btp282
Rp283
(dp284
bg192
tp285
Rp286
(dp287
bag4
(g5
((I1
S'15555555555555'
p288
I-56
I53
tp289
tp290
Rp291
(dp292
g11
I53
sbg20
g12
(g25
g53
(I3
tp293
Rp294
(dp295
btp296
Rp297
(dp298
bg73
g128
g180
g235
g259
g283
g192
g202
tp299
Rp300
(dp301
baa(lp302
g4
(g5
((I1
S'15555555555555'
p303
I-57
I53
tp304
tp305
Rp306
(dp307
g11
I53
sbg25
g20
g73
g128
g180
g235
g259
g283
g60
(g53
(I6
tp308
Rp309
(dp310
bg4
(g238
g25
g192
tp311
Rp312
(dp313
bg4
(g238
g25
g202
tp314
Rp315
(dp316
bg4
(g55
g58
g192
g202
tp317
Rp318
(dp319
btp320
Rp321
(dp322
btp323
Rp324
(dp325
bag4
(g5
((I0
S'15555555555555'
p326
I-57
I53
tp327
tp328
Rp329
(dp330
g11
I53
sbg20
g58
g73
g128
g180
g235
g60
(g238
g4
(g55
g25
g192
tp331
Rp332
(dp333
btp334
Rp335
(dp336
bg259
g283
g202
tp337
Rp338
(dp339
baaa(lp340
(lp341
g4
(g5
((I0
S'15555555555555'
p342
I-57
I53
tp343
tp344
Rp345
(dp346
g11
I53
sbg20
g58
g73
g128
g180
g235
g244
g60
(g4
(g55
g283
g208
g223
tp347
Rp348
(dp349
bg4
(g263
g253
g229
g223
tp350
Rp351
(dp352
bg4
(g17
g274
g253
g229
g208
tp353
Rp354
(dp355
btp356
Rp357
(dp358
bg192
tp359
Rp360
(dp361
bag4
(g5
((I1
S'15555555555555'
p362
I-56
I53
tp363
tp364
Rp365
(dp366
g11
I53
sbg20
g297
g73
g128
g180
g235
g357
g192
g202
tp367
Rp368
(dp369
baa(lp370
g4
(g5
((I1
S'15555555555555'
p371
I-57
I53
tp372
tp373
Rp374
(dp375
g11
I53
sbg25
g20
g73
g128
g180
g235
g357
g321
tp376
Rp377
(dp378
bag4
(g5
((I0
S'15555555555555'
p379
I-57
I53
tp380
tp381
Rp382
(dp383
g11
I53
sbg20
g58
g73
g128
g180
g235
g335
g357
g202
tp384
Rp385
(dp386
baaaa(lp387
(lp388
(lp389
g4
(g5
((I1
S'15555555555555'
p390
I-57
I53
tp391
tp392
Rp393
(dp394
g11
I53
sbg20
g58
g73
g128
g180
g235
g244
g60
(g4
(g232
g283
g208
g223
tp395
Rp396
(dp397
bg351
g4
(g17
g274
g253
g229
g208
tp398
Rp399
(dp400
btp401
Rp402
(dp403
bg192
tp404
Rp405
(dp406
bag4
(g5
((I0
S'15555555555555'
p407
I-56
I53
tp408
tp409
Rp410
(dp411
g11
I53
sbg20
g297
g73
g128
g180
g235
g402
g192
g202
tp412
Rp413
(dp414
baa(lp415
g4
(g5
((I0
S'15555555555555'
p416
I-57
I53
tp417
tp418
Rp419
(dp420
g11
I53
sbg25
g20
g73
g128
g180
g235
g402
g321
tp421
Rp422
(dp423
bag4
(g5
((I1
S'15555555555555'
p424
I-57
I53
tp425
tp426
Rp427
(dp428
g11
I53
sbg20
g58
g73
g128
g180
g235
g335
g402
g202
tp429
Rp430
(dp431
baaa(lp432
(lp433
g4
(g5
((I0
S'15555555555555'
p434
I-57
I53
tp435
tp436
Rp437
(dp438
g11
I53
sbg20
g58
g73
g128
g180
g235
g244
g60
(g4
(g55
g226
tp439
Rp440
(dp441
bg4
(g17
g253
g229
tp442
Rp443
(dp444
btp445
Rp446
(dp447
bg283
g192
tp448
Rp449
(dp450
bag4
(g5
((I1
S'15555555555555'
p451
I-56
I53
tp452
tp453
Rp454
(dp455
g11
I53
sbg20
g297
g73
g128
g180
g235
g446
g283
g192
g202
tp456
Rp457
(dp458
baa(lp459
g4
(g5
((I1
S'15555555555555'
p460
I-57
I53
tp461
tp462
Rp463
(dp464
g11
I53
sbg25
g20
g73
g128
g180
g235
g446
g283
g321
tp465
Rp466
(dp467
bag4
(g5
((I0
S'15555555555555'
p468
I-57
I53
tp469
tp470
Rp471
(dp472
g11
I53
sbg20
g58
g73
g128
g180
g235
g335
g446
g283
g202
tp473
Rp474
(dp475
baaaa.