(lp0
(lp1
(lp2
(lp3
csympy.core.mul
Mul
p4
(csympy.core.numbers
Float
p5
((I1
S'71c71c71c71c7'
p6
I-61
I51
tp7
tp8
Rp9
(dp10
S'_prec'
p11
I53
sbcsympy.core.power
Pow
p12
(csympy.core.numbers
Pi
p13
(tRp14
(dp15
bcsympy.core.numbers
NegativeOne
p16
(tRp17
(dp18
btp19
Rp20
(dp21
bg12
(csympy.core.symbol
Symbol
p22
(S'Lp'
p23
tp24
Rp25
(dp26
S'_assumptions'
p27
ccopy_reg
_reconstructor
p28
(csympy.core.assumptions
StdFactKB
p29
c__builtin__
dict
p30
(dp31
S'real'
p32
NsS'irrational'
p33
NsS'antihermitian'
p34
NsS'nonpositive'
p35
NsS'algebraic'
p36
NsS'hermitian'
p37
NsS'infinite'
p38
NsS'integer'
p39
NsS'imaginary'
p40
NsS'odd'
p41
NsS'even'
p42
NsS'commutative'
p43
I01
sS'zero'
p44
NsS'positive'
p45
NsS'negative'
p46
NsS'nonnegative'
p47
NsS'complex'
p48
NsS'rational'
p49
NsS'finite'
p50
Nstp51
Rp52
sbcsympy.core.numbers
Integer
p53
(I3
tp54
Rp55
(dp56
btp57
Rp58
(dp59
bg12
(g22
(S'mu'
p60
tp61
Rp62
(dp63
g27
g28
(g29
g30
(dp64
S'commutative'
p65
I01
stp66
Rp67
sbg17
tp68
Rp69
(dp70
bg12
(csympy.core.add
Add
p71
(g17
g22
(S'nu'
p72
tp73
Rp74
(dp75
g27
g28
(g29
g30
(dp76
g65
I01
stp77
Rp78
sbtp79
Rp80
(dp81
bg17
tp82
Rp83
(dp84
bg12
(g71
(g12
(g71
(g22
(S'obslx'
p85
tp86
Rp87
(dp88
g27
g28
(g29
g30
(dp89
g32
Nsg33
Nsg34
Nsg35
Nsg36
Nsg44
Nsg38
Nsg39
Nsg37
Nsg41
Nsg40
Nsg42
Nsg43
I01
sg45
Nsg46
Nsg47
Nsg48
Nsg49
Nsg50
Nstp90
Rp91
sbg4
(g17
g22
(S'obsrx'
p92
tp93
Rp94
(dp95
g27
g28
(g29
g30
(dp96
g32
Nsg33
Nsg34
Nsg35
Nsg36
Nsg44
Nsg38
Nsg39
Nsg37
Nsg41
Nsg40
Nsg42
Nsg43
I01
sg45
Nsg46
Nsg47
Nsg48
Nsg49
Nsg50
Nstp97
Rp98
sbtp99
Rp100
(dp101
btp102
Rp103
(dp104
bg53
(I2
tp105
Rp106
(dp107
btp108
Rp109
(dp110
bg12
(g71
(g22
(S'obsly'
p111
tp112
Rp113
(dp114
g27
g28
(g29
g30
(dp115
g32
Nsg33
Nsg34
Nsg35
Nsg36
Nsg44
Nsg38
Nsg39
Nsg37
Nsg41
Nsg40
Nsg42
Nsg43
I01
sg45
Nsg46
Nsg47
Nsg48
Nsg49
Nsg50
Nstp116
Rp117
sbg4
(g17
g22
(S'obsry'
p118
tp119
Rp120
(dp121
g27
g28
(g29
g30
(dp122
g32
Nsg33
Nsg34
Nsg35
Nsg36
Nsg44
Nsg38
Nsg39
Nsg37
Nsg41
Nsg40
Nsg42
Nsg43
I01
sg45
Nsg46
Nsg47
Nsg48
Nsg49
Nsg50
Nstp123
Rp124
sbtp125
Rp126
(dp127
btp128
Rp129
(dp130
bg106
tp131
Rp132
(dp133
btp134
Rp135
(dp136
bcsympy.core.numbers
Half
p137
(tRp138
(dp139
btp140
Rp141
(dp142
bg12
(g71
(g12
(g71
(g22
(S'srclx'
p143
tp144
Rp145
(dp146
g27
g28
(g29
g30
(dp147
g43
I01
stp148
Rp149
sbg4
(g17
g22
(S'srcrx'
p150
tp151
Rp152
(dp153
g27
g28
(g29
g30
(dp154
g33
Nsg34
Nsg35
Nsg45
Nsg46
Nsg47
Nsg36
Nsg44
Nsg48
Nsg49
Nsg38
Nsg37
Nsg50
Nsg43
I01
stp155
Rp156
sbtp157
Rp158
(dp159
btp160
Rp161
(dp162
bg106
tp163
Rp164
(dp165
bg12
(g71
(g22
(S'srcly'
p166
tp167
Rp168
(dp169
g27
g28
(g29
g30
(dp170
g43
I01
stp171
Rp172
sbg4
(g17
g22
(S'srcry'
p173
tp174
Rp175
(dp176
g27
g28
(g29
g30
(dp177
g43
I01
sg34
Nsg35
Nsg45
Nsg46
Nsg47
Nsg36
Nsg37
Nsg48
Nsg49
Nsg38
Nsg50
Nsg44
Nsg33
Nstp178
Rp179
sbtp180
Rp181
(dp182
btp183
Rp184
(dp185
bg106
tp186
Rp187
(dp188
btp189
Rp190
(dp191
bg138
tp192
Rp193
(dp194
bg12
(g71
(g12
(g71
(g4
(g103
csympy.functions.elementary.trigonometric
cos
p195
(g22
(S'theta'
p196
tp197
Rp198
(dp199
g27
g28
(g29
g30
(dp200
g32
NsS'nonzero'
p201
Nsg43
I01
sg45
Nsg46
Nsg44
Nsg48
Nsg49
Nstp202
Rp203
sbtp204
Rp205
(dp206
btp207
Rp208
(dp209
bg4
(g71
(g94
g158
tp210
Rp211
(dp212
bcsympy.functions.elementary.trigonometric
sin
p213
(g198
tp214
Rp215
(dp216
btp217
Rp218
(dp219
btp220
Rp221
(dp222
bg106
tp223
Rp224
(dp225
bg12
(g71
(g4
(g129
g205
tp226
Rp227
(dp228
bg4
(g71
(g120
g181
tp229
Rp230
(dp231
bg215
tp232
Rp233
(dp234
btp235
Rp236
(dp237
bg106
tp238
Rp239
(dp240
btp241
Rp242
(dp243
bg17
tp244
Rp245
(dp246
bg71
(g4
(g53
(I-48
tp247
Rp248
(dp249
bg224
tp250
Rp251
(dp252
bg4
(g53
(I16
tp253
Rp254
(dp255
bg71
(g53
(I-3
tp256
Rp257
(dp258
bg4
(g53
(I4
tp259
Rp260
(dp261
bg74
tp262
Rp263
(dp264
btp265
Rp266
(dp267
bg242
tp268
Rp269
(dp270
bg4
(g53
(I-24
tp271
Rp272
(dp273
bg266
g242
csympy.functions.elementary.exponential
log
p274
(g4
(g12
(g25
g106
tp275
Rp276
(dp277
bg242
tp278
Rp279
(dp280
btp281
Rp282
(dp283
btp284
Rp285
(dp286
bg4
(g53
(I36
tp287
Rp288
(dp289
bg25
g224
g215
tp290
Rp291
(dp292
bg4
(g53
(I-9
tp293
Rp294
(dp295
bg25
g266
g242
g215
tp296
Rp297
(dp298
bg4
(g53
(I18
tp299
Rp300
(dp301
bg25
g266
g242
g282
g215
tp302
Rp303
(dp304
btp305
Rp306
(dp307
bg205
tp308
Rp309
(dp310
bag4
(g5
((I0
S'1'
p311
I-7
I1
tp312
tp313
Rp314
(dp315
g11
I53
sbg20
g12
(g25
g260
tp316
Rp317
(dp318
bg69
g83
g141
g193
g245
g71
(g4
(g260
g224
tp319
Rp320
(dp321
bg4
(g17
g266
g242
tp322
Rp323
(dp324
bg4
(g106
g266
g242
g282
tp325
Rp326
(dp327
btp328
Rp329
(dp330
bg205
g215
tp331
Rp332
(dp333
baa(lp334
g4
(g5
((I0
S'71c71c71c71c7'
p335
I-61
I51
tp336
tp337
Rp338
(dp339
g11
I53
sbg20
g276
g69
g83
g141
g193
g245
g71
(g4
(g53
(I72
tp340
Rp341
(dp342
bg224
tp343
Rp344
(dp345
bg4
(g53
(I-36
tp346
Rp347
(dp348
bg266
g242
tp349
Rp350
(dp351
bg4
(g248
g25
g224
g205
tp352
Rp353
(dp354
bg4
(g248
g25
g224
g215
tp355
Rp356
(dp357
bg4
(g288
g266
g242
g282
tp358
Rp359
(dp360
bg4
(g254
g25
g266
g242
g205
tp361
Rp362
(dp363
bg4
(g254
g25
g266
g242
g215
tp364
Rp365
(dp366
bg4
(g288
g276
g224
g205
g215
tp367
Rp368
(dp369
bg4
(g272
g25
g266
g242
g205
g282
tp370
Rp371
(dp372
bg4
(g272
g25
g266
g242
g282
g215
tp373
Rp374
(dp375
bg4
(g294
g276
g266
g242
g205
g215
tp376
Rp377
(dp378
bg4
(g300
g276
g266
g242
g205
g282
g215
tp379
Rp380
(dp381
btp382
Rp383
(dp384
btp385
Rp386
(dp387
bag4
(g5
((I1
S'71c71c71c71c7'
p388
I-61
I51
tp389
tp390
Rp391
(dp392
g11
I53
sbg20
g58
g69
g83
g141
g193
g245
g71
(g251
g4
(g254
g266
g242
tp393
Rp394
(dp395
bg4
(g272
g266
g242
g282
tp396
Rp397
(dp398
bg4
(g288
g25
g224
g205
tp399
Rp400
(dp401
bg4
(g294
g25
g266
g242
g205
tp402
Rp403
(dp404
bg4
(g300
g25
g266
g242
g205
g282
tp405
Rp406
(dp407
btp408
Rp409
(dp410
bg215
tp411
Rp412
(dp413
baaa(lp414
(lp415
g4
(g5
((I1
S'15555555555555'
p416
I-59
I53
tp417
tp418
Rp419
(dp420
g11
I53
sbg20
g58
g69
g83
g141
g193
g245
g71
(g53
(I-4
tp421
Rp422
(dp423
bg4
(g55
g25
g215
tp424
Rp425
(dp426
btp427
Rp428
(dp429
bg221
g236
g205
tp430
Rp431
(dp432
bag4
(g5
((I0
g311
I-5
I1
tp433
tp434
Rp435
(dp436
g11
I53
sbg20
g317
g69
g83
g141
g193
g245
g221
g236
g205
g215
tp437
Rp438
(dp439
baa(lp440
g4
(g5
((I0
S'15555555555555'
p441
I-59
I53
tp442
tp443
Rp444
(dp445
g11
I53
sbg20
g276
g69
g83
g141
g193
g245
g221
g236
g71
(g53
(I6
tp446
Rp447
(dp448
bg4
(g422
g25
g205
tp449
Rp450
(dp451
bg4
(g422
g25
g215
tp452
Rp453
(dp454
bg4
(g55
g276
g205
g215
tp455
Rp456
(dp457
btp458
Rp459
(dp460
btp461
Rp462
(dp463
bag4
(g5
((I1
S'15555555555555'
p464
I-59
I53
tp465
tp466
Rp467
(dp468
g11
I53
sbg20
g58
g69
g83
g141
g193
g245
g71
(g422
g4
(g55
g25
g205
tp469
Rp470
(dp471
btp472
Rp473
(dp474
bg221
g236
g215
tp475
Rp476
(dp477
baaaa(lp478
(lp479
(lp480
g431
ag438
aa(lp481
g462
ag476
aaa(lp482
(lp483
g4
(g5
((I1
S'71c71c71c71c7'
p484
I-61
I51
tp485
tp486
Rp487
(dp488
g11
I53
sbg20
g58
g69
g83
g141
g193
g245
g71
(g4
(g248
g239
tp489
Rp490
(dp491
bg4
(g254
g266
g242
tp492
Rp493
(dp494
bg4
(g272
g266
g242
g282
tp495
Rp496
(dp497
bg4
(g288
g25
g239
g215
tp498
Rp499
(dp500
bg4
(g294
g25
g266
g242
g215
tp501
Rp502
(dp503
bg4
(g300
g25
g266
g242
g282
g215
tp504
Rp505
(dp506
btp507
Rp508
(dp509
bg205
tp510
Rp511
(dp512
bag4
(g5
((I0
g311
I-7
I1
tp513
tp514
Rp515
(dp516
g11
I53
sbg20
g317
g69
g83
g141
g193
g245
g71
(g4
(g260
g239
tp517
Rp518
(dp519
bg4
(g17
g266
g242
tp520
Rp521
(dp522
bg4
(g106
g266
g242
g282
tp523
Rp524
(dp525
btp526
Rp527
(dp528
bg205
g215
tp529
Rp530
(dp531
baa(lp532
g4
(g5
((I0
S'71c71c71c71c7'
p533
I-61
I51
tp534
tp535
Rp536
(dp537
g11
I53
sbg20
g276
g69
g83
g141
g193
g245
g71
(g4
(g341
g239
tp538
Rp539
(dp540
bg4
(g347
g266
g242
tp541
Rp542
(dp543
bg4
(g248
g25
g239
g205
tp544
Rp545
(dp546
bg4
(g248
g25
g239
g215
tp547
Rp548
(dp549
bg4
(g288
g266
g242
g282
tp550
Rp551
(dp552
bg4
(g254
g25
g266
g242
g205
tp553
Rp554
(dp555
bg4
(g254
g25
g266
g242
g215
tp556
Rp557
(dp558
bg4
(g288
g276
g239
g205
g215
tp559
Rp560
(dp561
bg4
(g272
g25
g266
g242
g205
g282
tp562
Rp563
(dp564
bg4
(g272
g25
g266
g242
g282
g215
tp565
Rp566
(dp567
bg4
(g294
g276
g266
g242
g205
g215
tp568
Rp569
(dp570
bg4
(g300
g276
g266
g242
g205
g282
g215
tp571
Rp572
(dp573
btp574
Rp575
(dp576
btp577
Rp578
(dp579
bag4
(g5
((I1
S'71c71c71c71c7'
p580
I-61
I51
tp581
tp582
Rp583
(dp584
g11
I53
sbg20
g58
g69
g83
g141
g193
g245
g71
(g490
g4
(g254
g266
g242
tp585
Rp586
(dp587
bg4
(g272
g266
g242
g282
tp588
Rp589
(dp590
bg4
(g288
g25
g239
g205
tp591
Rp592
(dp593
bg4
(g294
g25
g266
g242
g205
tp594
Rp595
(dp596
bg4
(g300
g25
g266
g242
g205
g282
tp597
Rp598
(dp599
btp600
Rp601
(dp602
bg215
tp603
Rp604
(dp605
baaaa.