(lp0
(lp1
csympy.core.add
Add
p2
(csympy.core.mul
Mul
p3
(csympy.core.symbol
Symbol
p4
(S'mu'
p5
tp6
Rp7
(dp8
S'_assumptions'
p9
ccopy_reg
_reconstructor
p10
(csympy.core.assumptions
StdFactKB
p11
c__builtin__
dict
p12
(dp13
S'commutative'
p14
I01
stp15
Rp16
sbcsympy.core.power
Pow
p17
(csympy.core.numbers
Pi
p18
(tRp19
(dp20
bcsympy.core.numbers
NegativeOne
p21
(tRp22
(dp23
btp24
Rp25
(dp26
bg17
(g2
(g17
(g2
(g4
(S'obsx'
p27
tp28
Rp29
(dp30
g9
g10
(g11
g12
(dp31
S'real'
p32
NsS'irrational'
p33
NsS'antihermitian'
p34
NsS'nonpositive'
p35
NsS'algebraic'
p36
NsS'hermitian'
p37
NsS'infinite'
p38
NsS'integer'
p39
NsS'imaginary'
p40
NsS'odd'
p41
NsS'even'
p42
Nsg14
I01
sS'zero'
p43
NsS'positive'
p44
NsS'negative'
p45
NsS'nonnegative'
p46
NsS'complex'
p47
NsS'rational'
p48
NsS'finite'
p49
Nstp50
Rp51
sbg3
(g22
g4
(S'srcx'
p52
tp53
Rp54
(dp55
g9
g10
(g11
g12
(dp56
g32
Nsg33
Nsg34
Nsg35
Nsg36
Nsg37
Nsg38
Nsg40
Nsg14
I01
sg43
Nsg44
Nsg45
Nsg46
Nsg47
Nsg48
Nsg49
Nstp57
Rp58
sbtp59
Rp60
(dp61
btp62
Rp63
(dp64
bcsympy.core.numbers
Integer
p65
(I2
tp66
Rp67
(dp68
btp69
Rp70
(dp71
bg17
(g2
(g4
(S'obsy'
p72
tp73
Rp74
(dp75
g9
g10
(g11
g12
(dp76
g32
Nsg33
Nsg34
Nsg35
Nsg36
Nsg37
Nsg38
Nsg39
Nsg40
Nsg41
Nsg42
Nsg14
I01
sg43
Nsg44
Nsg45
Nsg46
Nsg47
Nsg48
Nsg49
Nstp77
Rp78
sbg3
(g22
g4
(S'srcy'
p79
tp80
Rp81
(dp82
g9
g10
(g11
g12
(dp83
g32
Nsg33
Nsg34
Nsg35
Nsg36
Nsg37
Nsg38
Nsg40
Nsg14
I01
sg43
Nsg44
Nsg45
Nsg46
Nsg47
Nsg48
Nsg49
Nstp84
Rp85
sbtp86
Rp87
(dp88
btp89
Rp90
(dp91
bg67
tp92
Rp93
(dp94
btp95
Rp96
(dp97
bg22
tp98
Rp99
(dp100
bg2
(g3
(g4
(S'N1'
p101
tp102
Rp103
(dp104
g9
g10
(g11
g12
(dp105
g14
I01
sg34
Nsg35
Nsg44
Nsg45
Nsg46
Nsg36
Nsg43
Nsg47
Nsg48
Nsg38
Nsg37
Nsg49
Nsg33
Nstp106
Rp107
sbg99
g63
g2
(g3
(g4
(S'n1'
p108
tp109
Rp110
(dp111
g9
g10
(g11
g12
(dp112
g49
Nsg14
I01
sg34
Nsg35
Nsg44
Nsg45
Nsg46
Nsg36
Nsg37
Nsg43
Nsg48
Nsg38
Nsg47
Nsg33
Nstp113
Rp114
sbg63
tp115
Rp116
(dp117
bg3
(g4
(S'n2'
p118
tp119
Rp120
(dp121
g9
g10
(g11
g12
(dp122
g14
I01
sg34
Nsg35
Nsg44
Nsg45
Nsg46
Nsg36
Nsg43
Nsg47
Nsg48
Nsg38
Nsg37
Nsg49
Nsg33
Nstp123
Rp124
sbg90
tp125
Rp126
(dp127
btp128
Rp129
(dp130
btp131
Rp132
(dp133
bg3
(g110
g99
g63
g2
(g3
(g103
g63
tp134
Rp135
(dp136
bg3
(g4
(S'N2'
p137
tp138
Rp139
(dp140
g9
g10
(g11
g12
(dp141
g14
I01
sg34
Nsg35
Nsg44
Nsg45
Nsg46
Nsg36
Nsg43
Nsg47
Nsg48
Nsg38
Nsg37
Nsg49
Nsg33
Nstp142
Rp143
sbg90
tp144
Rp145
(dp146
btp147
Rp148
(dp149
btp150
Rp151
(dp152
btp153
Rp154
(dp155
btp156
Rp157
(dp158
bg3
(csympy.core.numbers
Rational
p159
(I-1
I2
tp160
Rp161
(dp162
bg7
g4
(S'nu'
p163
tp164
Rp165
(dp166
g9
g10
(g11
g12
(dp167
g14
I01
sg34
Nsg35
Nsg44
Nsg45
Nsg46
Nsg36
Nsg43
Nsg47
Nsg48
Nsg38
Nsg37
Nsg49
Nsg33
Nstp168
Rp169
sbg25
g17
(g2
(g22
g165
tp170
Rp171
(dp172
bg22
tp173
Rp174
(dp175
bg99
g2
(g3
(g67
g103
g110
tp176
Rp177
(dp178
bg3
(g22
g17
(g165
g22
tp179
Rp180
(dp181
bg2
(g22
g3
(g67
g165
tp182
Rp183
(dp184
btp185
Rp186
(dp187
bg2
(g3
(g103
g110
tp188
Rp189
(dp190
bg3
(g139
g120
tp191
Rp192
(dp193
btp194
Rp195
(dp196
btp197
Rp198
(dp199
bg3
(g67
g70
g99
g2
(g189
g192
g3
(g65
(I-4
tp200
Rp201
(dp202
bg180
g99
g148
g129
tp203
Rp204
(dp205
btp206
Rp207
(dp208
btp209
Rp210
(dp211
bg3
(g67
g99
g148
g129
tp212
Rp213
(dp214
btp215
Rp216
(dp217
btp218
Rp219
(dp220
btp221
Rp222
(dp223
bag2
(g3
(csympy.core.numbers
Half
p224
(tRp225
(dp226
bg7
g25
g99
g2
(g3
(g99
g148
g2
(g3
(g110
g90
tp227
Rp228
(dp229
bg3
(g120
g63
tp230
Rp231
(dp232
btp233
Rp234
(dp235
btp236
Rp237
(dp238
bg3
(g99
g2
(g3
(g103
g90
tp239
Rp240
(dp241
bg3
(g139
g63
tp242
Rp243
(dp244
btp245
Rp246
(dp247
bg129
tp248
Rp249
(dp250
btp251
Rp252
(dp253
btp254
Rp255
(dp256
bg3
(g161
g7
g165
g25
g174
g99
g2
(g3
(g103
g120
tp257
Rp258
(dp259
bg3
(g139
g110
tp260
Rp261
(dp262
bg3
(g67
g99
g63
g90
g207
tp263
Rp264
(dp265
btp266
Rp267
(dp268
btp269
Rp270
(dp271
btp272
Rp273
(dp274
baa(lp275
g273
ag2
(g3
(g7
g25
g99
g2
(g3
(g139
g99
g90
g129
tp276
Rp277
(dp278
bg3
(g120
g99
g90
g148
tp279
Rp280
(dp281
btp282
Rp283
(dp284
btp285
Rp286
(dp287
bg3
(g161
g7
g165
g25
g174
g99
g2
(g3
(g67
g139
g120
tp288
Rp289
(dp290
bg3
(g22
g180
g186
g195
tp291
Rp292
(dp293
bg3
(g67
g93
g99
g207
tp294
Rp295
(dp296
bg3
(g67
g99
g148
g129
tp297
Rp298
(dp299
btp300
Rp301
(dp302
btp303
Rp304
(dp305
btp306
Rp307
(dp308
baa.