(lp0
(lp1
(lp2
(lp3
csympy.core.mul
Mul
p4
(csympy.core.numbers
Float
p5
((I1
S'1'
p6
I-4
I1
tp7
tp8
Rp9
(dp10
S'_prec'
p11
I53
sbcsympy.core.power
Pow
p12
(csympy.core.numbers
Pi
p13
(tRp14
(dp15
bcsympy.core.numbers
NegativeOne
p16
(tRp17
(dp18
btp19
Rp20
(dp21
bg12
(csympy.core.symbol
Symbol
p22
(S'mu'
p23
tp24
Rp25
(dp26
S'_assumptions'
p27
ccopy_reg
_reconstructor
p28
(csympy.core.assumptions
StdFactKB
p29
c__builtin__
dict
p30
(dp31
S'commutative'
p32
I01
stp33
Rp34
sbg17
tp35
Rp36
(dp37
bg12
(csympy.core.add
Add
p38
(g17
g22
(S'nu'
p39
tp40
Rp41
(dp42
g27
g28
(g29
g30
(dp43
g32
I01
sS'antihermitian'
p44
NsS'nonpositive'
p45
NsS'positive'
p46
NsS'negative'
p47
NsS'nonnegative'
p48
NsS'algebraic'
p49
NsS'zero'
p50
NsS'complex'
p51
NsS'rational'
p52
NsS'infinite'
p53
NsS'hermitian'
p54
NsS'finite'
p55
NsS'irrational'
p56
Nstp57
Rp58
sbtp59
Rp60
(dp61
bg17
tp62
Rp63
(dp64
bg12
(g38
(g12
(g38
(g22
(S'obslx'
p65
tp66
Rp67
(dp68
g27
g28
(g29
g30
(dp69
S'real'
p70
Nsg55
Nsg32
I01
sg44
Nsg46
Nsg47
Nsg49
Nsg54
Nsg50
Nsg52
Nsg53
NsS'imaginary'
p71
Nsg51
Nsg56
Nstp72
Rp73
sbg4
(g17
g22
(S'obsrx'
p74
tp75
Rp76
(dp77
g27
g28
(g29
g30
(dp78
g70
Nsg56
Nsg44
Nsg45
Nsg49
Nsg54
Nsg53
Nsg71
Nsg32
I01
sg50
Nsg46
Nsg47
Nsg48
Nsg51
Nsg52
Nsg55
Nstp79
Rp80
sbtp81
Rp82
(dp83
btp84
Rp85
(dp86
bcsympy.core.numbers
Integer
p87
(I2
tp88
Rp89
(dp90
btp91
Rp92
(dp93
bg12
(g38
(g22
(S'obsly'
p94
tp95
Rp96
(dp97
g27
g28
(g29
g30
(dp98
g70
Nsg55
Nsg32
I01
sg44
Nsg46
Nsg47
Nsg49
Nsg54
Nsg50
Nsg52
Nsg53
Nsg71
Nsg51
Nsg56
Nstp99
Rp100
sbg4
(g17
g22
(S'obsry'
p101
tp102
Rp103
(dp104
g27
g28
(g29
g30
(dp105
g70
Nsg56
Nsg44
Nsg45
Nsg49
Nsg54
Nsg53
Nsg71
Nsg32
I01
sg50
Nsg46
Nsg47
Nsg48
Nsg51
Nsg52
Nsg55
Nstp106
Rp107
sbtp108
Rp109
(dp110
btp111
Rp112
(dp113
bg89
tp114
Rp115
(dp116
btp117
Rp118
(dp119
bcsympy.core.numbers
Half
p120
(tRp121
(dp122
btp123
Rp124
(dp125
bg12
(g38
(g12
(g38
(g22
(S'srclx'
p126
tp127
Rp128
(dp129
g27
g28
(g29
g30
(dp130
g70
Nsg55
Nsg32
I01
sg44
Nsg46
Nsg47
Nsg49
Nsg54
Nsg50
Nsg52
Nsg53
Nsg71
Nsg51
Nsg56
Nstp131
Rp132
sbg4
(g17
g22
(S'srcrx'
p133
tp134
Rp135
(dp136
g27
g28
(g29
g30
(dp137
g70
Nsg56
Nsg44
Nsg45
Nsg49
Nsg54
Nsg53
Nsg71
Nsg32
I01
sg50
Nsg46
Nsg47
Nsg48
Nsg51
Nsg52
Nsg55
Nstp138
Rp139
sbtp140
Rp141
(dp142
btp143
Rp144
(dp145
bg89
tp146
Rp147
(dp148
bg12
(g38
(g22
(S'srcly'
p149
tp150
Rp151
(dp152
g27
g28
(g29
g30
(dp153
g70
Nsg55
Nsg32
I01
sg44
Nsg46
Nsg47
Nsg49
Nsg54
Nsg50
Nsg52
Nsg53
Nsg71
Nsg51
Nsg56
Nstp154
Rp155
sbg4
(g17
g22
(S'srcry'
p156
tp157
Rp158
(dp159
g27
g28
(g29
g30
(dp160
g70
Nsg56
Nsg44
Nsg45
Nsg49
Nsg54
Nsg53
Nsg71
Nsg32
I01
sg50
Nsg46
Nsg47
Nsg48
Nsg51
Nsg52
Nsg55
Nstp161
Rp162
sbtp163
Rp164
(dp165
btp166
Rp167
(dp168
bg89
tp169
Rp170
(dp171
btp172
Rp173
(dp174
bg121
tp175
Rp176
(dp177
bg38
(g17
g22
(S'obsxhat'
p178
tp179
Rp180
(dp181
g27
g28
(g29
g30
(dp182
g70
Nsg56
Nsg44
Nsg45
Nsg49
Nsg50
Nsg53
NsS'integer'
p183
Nsg54
Nsg71
NsS'even'
p184
Nsg32
I01
sg46
Nsg47
Nsg48
Nsg51
Nsg52
Nsg55
Nstp185
Rp186
sbtp187
Rp188
(dp189
bg38
(g17
g22
(S'srcxhat'
p190
tp191
Rp192
(dp193
g27
g28
(g29
g30
(dp194
g70
Nsg56
Nsg44
Nsg45
Nsg49
Nsg54
Nsg53
Nsg183
Nsg71
Nsg184
Nsg32
I01
sg50
Nsg46
Nsg47
Nsg48
Nsg51
Nsg52
Nsg55
Nstp195
Rp196
sbtp197
Rp198
(dp199
bg38
(g4
(g38
(g87
(I-3
tp200
Rp201
(dp202
bg4
(g87
(I4
tp203
Rp204
(dp205
bg41
tp206
Rp207
(dp208
btp209
Rp210
(dp211
bcsympy.functions.elementary.exponential
log
p212
(g38
(g12
(g38
(g4
(g67
g188
tp213
Rp214
(dp215
bg4
(g135
g192
tp216
Rp217
(dp218
bg4
(g17
g76
g180
tp219
Rp220
(dp221
bg4
(g17
g128
g198
tp222
Rp223
(dp224
btp225
Rp226
(dp227
bg89
tp228
Rp229
(dp230
bg12
(g38
(g4
(g96
g188
tp231
Rp232
(dp233
bg4
(g158
g192
tp234
Rp235
(dp236
bg4
(g17
g103
g180
tp237
Rp238
(dp239
bg4
(g17
g151
g198
tp240
Rp241
(dp242
btp243
Rp244
(dp245
bg89
tp246
Rp247
(dp248
btp249
Rp250
(dp251
btp252
Rp253
(dp254
btp255
Rp256
(dp257
bg4
(g89
g12
(g250
g17
tp258
Rp259
(dp260
bg229
tp261
Rp262
(dp263
btp264
Rp265
(dp266
btp267
Rp268
(dp269
bag4
(g5
((I0
g6
I-4
I1
tp270
tp271
Rp272
(dp273
g11
I53
sbg192
g20
g36
g63
g124
g176
g188
g265
tp274
Rp275
(dp276
baa(lp277
g4
(g5
((I0
g6
I-4
I1
tp278
tp279
Rp280
(dp281
g11
I53
sbg180
g20
g36
g63
g124
g176
g198
g265
tp282
Rp283
(dp284
bag4
(g5
((I1
g6
I-4
I1
tp285
tp286
Rp287
(dp288
g11
I53
sbg180
g192
g20
g36
g63
g124
g176
g265
tp289
Rp290
(dp291
baaa(lp292
(lp293
g4
(g5
((I1
g6
I-3
I1
tp294
tp295
Rp296
(dp297
g11
I53
sbg20
g36
g63
g124
g176
g259
g188
g198
g226
g244
tp298
Rp299
(dp300
bag4
(g5
((I0
g6
I-3
I1
tp301
tp302
Rp303
(dp304
g11
I53
sbg192
g20
g36
g63
g124
g176
g259
g188
g226
g244
tp305
Rp306
(dp307
baa(lp308
g4
(g5
((I0
g6
I-3
I1
tp309
tp310
Rp311
(dp312
g11
I53
sbg180
g20
g36
g63
g124
g176
g259
g198
g226
g244
tp313
Rp314
(dp315
bag4
(g5
((I1
g6
I-3
I1
tp316
tp317
Rp318
(dp319
g11
I53
sbg180
g192
g20
g36
g63
g124
g176
g259
g226
g244
tp320
Rp321
(dp322
baaaa(lp323
(lp324
(lp325
g299
ag306
aa(lp326
g314
ag321
aaa(lp327
(lp328
g4
(g5
((I1
g6
I-4
I1
tp329
tp330
Rp331
(dp332
g11
I53
sbg20
g36
g63
g124
g176
g188
g198
g38
(g256
g4
(g89
g259
g247
tp333
Rp334
(dp335
btp336
Rp337
(dp338
btp339
Rp340
(dp341
bag4
(g5
((I0
g6
I-4
I1
tp342
tp343
Rp344
(dp345
g11
I53
sbg192
g20
g36
g63
g124
g176
g188
g337
tp346
Rp347
(dp348
baa(lp349
g4
(g5
((I0
g6
I-4
I1
tp350
tp351
Rp352
(dp353
g11
I53
sbg180
g20
g36
g63
g124
g176
g198
g337
tp354
Rp355
(dp356
bag4
(g5
((I1
g6
I-4
I1
tp357
tp358
Rp359
(dp360
g11
I53
sbg180
g192
g20
g36
g63
g124
g176
g337
tp361
Rp362
(dp363
baaaa.