(lp0
(lp1
(lp2
(lp3
csympy.core.mul
Mul
p4
(csympy.core.numbers
Rational
p5
(I-1
I2
tp6
Rp7
(dp8
bcsympy.core.power
Pow
p9
(csympy.core.add
Add
p10
(g9
(g10
(csympy.core.symbol
Symbol
p11
(S'obslx'
p12
tp13
Rp14
(dp15
S'_assumptions'
p16
ccopy_reg
_reconstructor
p17
(csympy.core.assumptions
StdFactKB
p18
c__builtin__
dict
p19
(dp20
S'real'
p21
NsS'irrational'
p22
NsS'antihermitian'
p23
NsS'nonpositive'
p24
NsS'algebraic'
p25
NsS'hermitian'
p26
NsS'infinite'
p27
NsS'integer'
p28
NsS'imaginary'
p29
NsS'odd'
p30
NsS'even'
p31
NsS'commutative'
p32
I01
sS'zero'
p33
NsS'positive'
p34
NsS'negative'
p35
NsS'nonnegative'
p36
NsS'complex'
p37
NsS'rational'
p38
NsS'finite'
p39
Nstp40
Rp41
sbg4
(csympy.core.numbers
NegativeOne
p42
(tRp43
(dp44
bg11
(S'obsrx'
p45
tp46
Rp47
(dp48
g16
g17
(g18
g19
(dp49
g21
Nsg22
Nsg23
Nsg24
Nsg25
Nsg26
Nsg27
Nsg29
Nsg32
I01
sg33
Nsg34
Nsg35
Nsg36
Nsg37
Nsg38
Nsg39
Nstp50
Rp51
sbtp52
Rp53
(dp54
btp55
Rp56
(dp57
bcsympy.core.numbers
Integer
p58
(I2
tp59
Rp60
(dp61
btp62
Rp63
(dp64
bg9
(g10
(g11
(S'obsly'
p65
tp66
Rp67
(dp68
g16
g17
(g18
g19
(dp69
g21
Nsg22
Nsg23
Nsg24
Nsg25
Nsg26
Nsg27
Nsg28
Nsg29
Nsg30
Nsg31
Nsg32
I01
sg33
Nsg34
Nsg35
Nsg36
Nsg37
Nsg38
Nsg39
Nstp70
Rp71
sbg4
(g43
g11
(S'obsry'
p72
tp73
Rp74
(dp75
g16
g17
(g18
g19
(dp76
g21
Nsg22
Nsg23
Nsg24
Nsg25
Nsg26
Nsg27
Nsg29
Nsg32
I01
sg33
Nsg34
Nsg35
Nsg36
Nsg37
Nsg38
Nsg39
Nstp77
Rp78
sbtp79
Rp80
(dp81
btp82
Rp83
(dp84
bg60
tp85
Rp86
(dp87
btp88
Rp89
(dp90
bcsympy.core.numbers
Half
p91
(tRp92
(dp93
btp94
Rp95
(dp96
bg9
(g10
(g9
(g10
(g11
(S'srclx'
p97
tp98
Rp99
(dp100
g16
g17
(g18
g19
(dp101
g21
Nsg22
Nsg23
Nsg24
Nsg25
Nsg26
Nsg27
Nsg28
Nsg29
Nsg30
Nsg31
Nsg32
I01
sg33
Nsg34
Nsg35
Nsg36
Nsg37
Nsg38
Nsg39
Nstp102
Rp103
sbg4
(g43
g11
(S'srcrx'
p104
tp105
Rp106
(dp107
g16
g17
(g18
g19
(dp108
g21
Nsg22
Nsg23
Nsg24
Nsg25
Nsg26
Nsg27
Nsg29
Nsg32
I01
sg33
Nsg34
Nsg35
Nsg36
Nsg37
Nsg38
Nsg39
Nstp109
Rp110
sbtp111
Rp112
(dp113
btp114
Rp115
(dp116
bg60
tp117
Rp118
(dp119
bg9
(g10
(g11
(S'srcly'
p120
tp121
Rp122
(dp123
g16
g17
(g18
g19
(dp124
g21
Nsg22
Nsg23
Nsg24
Nsg25
Nsg26
Nsg27
Nsg28
Nsg29
Nsg30
Nsg31
Nsg32
I01
sg33
Nsg34
Nsg35
Nsg36
Nsg37
Nsg38
Nsg39
Nstp125
Rp126
sbg4
(g43
g11
(S'srcry'
p127
tp128
Rp129
(dp130
g16
g17
(g18
g19
(dp131
g21
Nsg22
Nsg23
Nsg24
Nsg25
Nsg26
Nsg27
Nsg29
Nsg32
I01
sg33
Nsg34
Nsg35
Nsg36
Nsg37
Nsg38
Nsg39
Nstp132
Rp133
sbtp134
Rp135
(dp136
btp137
Rp138
(dp139
bg60
tp140
Rp141
(dp142
btp143
Rp144
(dp145
bg92
tp146
Rp147
(dp148
bg10
(g43
g11
(S'obsxhat'
p149
tp150
Rp151
(dp152
g16
g17
(g18
g19
(dp153
g21
Nsg22
Nsg23
Nsg24
Nsg25
Nsg26
Nsg27
Nsg28
Nsg29
Nsg31
Nsg32
I01
sg33
Nsg34
Nsg35
Nsg36
Nsg37
Nsg38
Nsg39
Nstp154
Rp155
sbtp156
Rp157
(dp158
bg10
(g43
g11
(S'srcxhat'
p159
tp160
Rp161
(dp162
g16
g17
(g18
g19
(dp163
g21
Nsg22
Nsg23
Nsg24
Nsg25
Nsg26
Nsg27
Nsg28
Nsg29
Nsg31
Nsg32
I01
sg33
Nsg34
Nsg35
Nsg36
Nsg37
Nsg38
Nsg39
Nstp164
Rp165
sbtp166
Rp167
(dp168
bg10
(g4
(g60
g11
(S'mu'
p169
tp170
Rp171
(dp172
g16
g17
(g18
g19
(dp173
g32
I01
stp174
Rp175
sbg9
(csympy.core.numbers
Pi
p176
(tRp177
(dp178
bg43
tp179
Rp180
(dp181
bg9
(g10
(g9
(g10
(g4
(g14
g157
tp182
Rp183
(dp184
bg4
(g106
g161
tp185
Rp186
(dp187
bg4
(g43
g47
g151
tp188
Rp189
(dp190
bg4
(g43
g99
g167
tp191
Rp192
(dp193
btp194
Rp195
(dp196
bg60
tp197
Rp198
(dp199
bg9
(g10
(g4
(g67
g157
tp200
Rp201
(dp202
bg4
(g129
g161
tp203
Rp204
(dp205
bg4
(g43
g74
g151
tp206
Rp207
(dp208
bg4
(g43
g122
g167
tp209
Rp210
(dp211
btp212
Rp213
(dp214
bg60
tp215
Rp216
(dp217
btp218
Rp219
(dp220
bg43
tp221
Rp222
(dp223
bg10
(g4
(g9
(g89
g7
tp224
Rp225
(dp226
bg222
g83
g10
(g4
(g9
(g144
g7
tp227
Rp228
(dp229
bg115
g213
tp230
Rp231
(dp232
bg4
(g43
g228
g138
g195
tp233
Rp234
(dp235
btp236
Rp237
(dp238
bg195
tp239
Rp240
(dp241
bg4
(g228
g222
g138
g10
(g4
(g225
g56
g213
tp242
Rp243
(dp244
bg4
(g43
g225
g83
g195
tp245
Rp246
(dp247
btp248
Rp249
(dp250
bg195
tp251
Rp252
(dp253
btp254
Rp255
(dp256
btp257
Rp258
(dp259
bg4
(g171
g11
(S'nu'
p260
tp261
Rp262
(dp263
g16
g17
(g18
g19
(dp264
g32
I01
sg23
Nsg24
Nsg34
Nsg35
Nsg36
Nsg25
Nsg33
Nsg37
Nsg38
Nsg27
Nsg26
Nsg39
Nsg22
Nstp265
Rp266
sbg180
g9
(g10
(g43
g262
tp267
Rp268
(dp269
bg43
tp270
Rp271
(dp272
bg222
g10
(g4
(g43
g9
(g262
g43
tp273
Rp274
(dp275
bg10
(g43
g4
(g60
g262
tp276
Rp277
(dp278
btp279
Rp280
(dp281
bg10
(g4
(g225
g228
g56
g115
tp282
Rp283
(dp284
bg4
(g225
g228
g83
g138
tp285
Rp286
(dp287
btp288
Rp289
(dp290
btp291
Rp292
(dp293
bg4
(g60
g222
g198
g10
(g283
g286
g4
(g58
(I-4
tp294
Rp295
(dp296
bg274
g222
g249
g237
tp297
Rp298
(dp299
btp300
Rp301
(dp302
btp303
Rp304
(dp305
bg4
(g60
g222
g249
g237
tp306
Rp307
(dp308
bg4
(g60
g225
g228
g83
g138
tp309
Rp310
(dp311
btp312
Rp313
(dp314
btp315
Rp316
(dp317
btp318
Rp319
(dp320
btp321
Rp322
(dp323
bag4
(g92
g161
g95
g147
g157
g319
tp324
Rp325
(dp326
baa(lp327
g4
(g92
g151
g95
g147
g167
g319
tp328
Rp329
(dp330
bag4
(g7
g151
g161
g95
g147
g319
tp331
Rp332
(dp333
baaa(lp334
(lp335
g4
(g92
g95
g147
g157
g167
g10
(g4
(g171
g180
g222
g10
(g4
(g222
g10
(g4
(g225
g56
g195
tp336
Rp337
(dp338
bg4
(g43
g225
g83
g213
tp339
Rp340
(dp341
btp342
Rp343
(dp344
bg237
tp345
Rp346
(dp347
bg4
(g222
g249
g10
(g4
(g228
g115
g195
tp348
Rp349
(dp350
bg4
(g43
g228
g138
g213
tp351
Rp352
(dp353
btp354
Rp355
(dp356
btp357
Rp358
(dp359
btp360
Rp361
(dp362
btp363
Rp364
(dp365
bg4
(g43
g171
g262
g180
g271
g222
g10
(g4
(g43
g225
g228
g56
g138
tp366
Rp367
(dp368
bg4
(g43
g225
g228
g83
g115
tp369
Rp370
(dp371
bg4
(g60
g222
g301
g195
g213
tp372
Rp373
(dp374
btp375
Rp376
(dp377
btp378
Rp379
(dp380
btp381
Rp382
(dp383
btp384
Rp385
(dp386
bag4
(g7
g161
g95
g147
g157
g382
tp387
Rp388
(dp389
baa(lp390
g4
(g7
g151
g95
g147
g167
g382
tp391
Rp392
(dp393
bag4
(g92
g151
g161
g95
g147
g382
tp394
Rp395
(dp396
baaaa(lp397
(lp398
(lp399
g385
ag388
aa(lp400
g392
ag395
aaa(lp401
(lp402
g4
(g92
g95
g147
g157
g167
g10
(g4
(g60
g171
g180
g222
g10
(g4
(g225
g222
g56
g237
g213
tp403
Rp404
(dp405
bg4
(g228
g222
g115
g249
g213
tp406
Rp407
(dp408
btp409
Rp410
(dp411
btp412
Rp413
(dp414
bg4
(g43
g171
g262
g180
g271
g222
g10
(g4
(g43
g274
g280
g289
tp415
Rp416
(dp417
bg4
(g60
g222
g216
g301
tp418
Rp419
(dp420
bg4
(g60
g222
g249
g237
tp421
Rp422
(dp423
bg4
(g60
g225
g228
g56
g115
tp424
Rp425
(dp426
btp427
Rp428
(dp429
btp430
Rp431
(dp432
btp433
Rp434
(dp435
btp436
Rp437
(dp438
bag4
(g7
g161
g95
g147
g157
g434
tp439
Rp440
(dp441
baa(lp442
g4
(g7
g151
g95
g147
g167
g434
tp443
Rp444
(dp445
bag4
(g92
g151
g161
g95
g147
g434
tp446
Rp447
(dp448
baaaa.