(lp0
(lp1
(lp2
(lp3
csympy.core.mul
Mul
p4
(csympy.core.numbers
Rational
p5
(I1
I12
tp6
Rp7
(dp8
bcsympy.core.power
Pow
p9
(csympy.core.add
Add
p10
(g9
(g10
(csympy.core.symbol
Symbol
p11
(S'obslx'
p12
tp13
Rp14
(dp15
S'_assumptions'
p16
ccopy_reg
_reconstructor
p17
(csympy.core.assumptions
StdFactKB
p18
c__builtin__
dict
p19
(dp20
S'commutative'
p21
I01
stp22
Rp23
sbg4
(csympy.core.numbers
NegativeOne
p24
(tRp25
(dp26
bg11
(S'obsrx'
p27
tp28
Rp29
(dp30
g16
g17
(g18
g19
(dp31
g21
I01
stp32
Rp33
sbtp34
Rp35
(dp36
btp37
Rp38
(dp39
bcsympy.core.numbers
Integer
p40
(I2
tp41
Rp42
(dp43
btp44
Rp45
(dp46
bg9
(g10
(g11
(S'obsly'
p47
tp48
Rp49
(dp50
g16
g17
(g18
g19
(dp51
g21
I01
stp52
Rp53
sbg4
(g25
g11
(S'obsry'
p54
tp55
Rp56
(dp57
g16
g17
(g18
g19
(dp58
g21
I01
stp59
Rp60
sbtp61
Rp62
(dp63
btp64
Rp65
(dp66
bg42
tp67
Rp68
(dp69
btp70
Rp71
(dp72
bg25
tp73
Rp74
(dp75
bg10
(g4
(g40
(I4
tp76
Rp77
(dp78
bg68
g74
g10
(g4
(g25
g11
(S'mu'
p79
tp80
Rp81
(dp82
g16
g17
(g18
g19
(dp83
S'commutative'
p84
I01
stp85
Rp86
sbg9
(csympy.core.numbers
Pi
p87
(tRp88
(dp89
bg25
tp90
Rp91
(dp92
bg71
tp93
Rp94
(dp95
bg4
(g40
(I3
tp96
Rp97
(dp98
bg81
g11
(S'nu'
p99
tp100
Rp101
(dp102
g16
g17
(g18
g19
(dp103
g84
I01
stp104
Rp105
sbg91
g9
(g10
(g25
g101
tp106
Rp107
(dp108
bg25
tp109
Rp110
(dp111
bg71
csympy.functions.elementary.exponential
log
p112
(g9
(g71
csympy.core.numbers
Half
p113
(tRp114
(dp115
btp116
Rp117
(dp118
btp119
Rp120
(dp121
btp122
Rp123
(dp124
btp125
Rp126
(dp127
btp128
Rp129
(dp130
bg4
(g40
(I-8
tp131
Rp132
(dp133
bg81
g91
g110
g45
tp134
Rp135
(dp136
bg4
(g81
g91
g110
g10
(g25
g4
(g42
g101
tp137
Rp138
(dp139
btp140
Rp141
(dp142
bg10
(g45
g68
g4
(g40
(I-6
tp143
Rp144
(dp145
bg71
g120
tp146
Rp147
(dp148
btp149
Rp150
(dp151
btp152
Rp153
(dp154
bg4
(g42
g81
g101
g91
g110
g10
(g45
g68
g4
(g42
g45
g10
(g25
g4
(g97
g120
tp155
Rp156
(dp157
btp158
Rp159
(dp160
btp161
Rp162
(dp163
btp164
Rp165
(dp166
btp167
Rp168
(dp169
btp170
Rp171
(dp172
btp173
Rp174
(dp175
bag4
(g7
g74
g10
(g4
(g144
g9
(g71
g5
(I-1
I2
tp176
Rp177
(dp178
btp179
Rp180
(dp181
bg65
g10
(g4
(g81
g117
g38
tp182
Rp183
(dp184
bg4
(g81
g110
g117
g38
tp185
Rp186
(dp187
bg4
(g25
g81
g101
g110
g117
g38
tp188
Rp189
(dp190
btp191
Rp192
(dp193
btp194
Rp195
(dp196
bg4
(g42
g68
g74
g10
(g4
(g42
g81
g91
g71
tp197
Rp198
(dp199
bg4
(g97
g81
g91
g110
g71
tp200
Rp201
(dp202
btp203
Rp204
(dp205
btp206
Rp207
(dp208
bg4
(g42
g81
g91
g110
g45
tp209
Rp210
(dp211
bg4
(g25
g81
g91
g110
g141
g71
tp212
Rp213
(dp214
bg4
(g42
g81
g101
g91
g110
g10
(g45
g4
(g25
g68
tp215
Rp216
(dp217
btp218
Rp219
(dp220
btp221
Rp222
(dp223
btp224
Rp225
(dp226
btp227
Rp228
(dp229
baa(lp230
g4
(g7
g74
g10
(g4
(g42
g68
g74
g204
tp231
Rp232
(dp233
bg4
(g40
(I6
tp234
Rp235
(dp236
bg180
g65
g192
tp237
Rp238
(dp239
bg4
(g42
g81
g91
g110
g45
tp240
Rp241
(dp242
bg4
(g25
g81
g91
g110
g141
g71
tp243
Rp244
(dp245
bg4
(g42
g81
g101
g91
g110
g219
tp246
Rp247
(dp248
btp249
Rp250
(dp251
btp252
Rp253
(dp254
bag174
aaa(lp255
(lp256
g4
(g5
(I1
I3
tp257
Rp258
(dp259
bg74
g10
(g4
(g25
g74
g38
g65
g126
tp260
Rp261
(dp262
bg4
(g40
(I-2
tp263
Rp264
(dp265
bg81
g91
g110
g38
g65
tp266
Rp267
(dp268
bg4
(g81
g101
g91
g110
g159
g38
g65
tp269
Rp270
(dp271
btp272
Rp273
(dp274
btp275
Rp276
(dp277
bag4
(g7
g74
g10
(g4
(g180
g38
g10
(g4
(g264
g180
g65
g204
tp278
Rp279
(dp280
bg4
(g97
g81
g117
g38
tp281
Rp282
(dp283
bg4
(g97
g81
g110
g117
g38
tp284
Rp285
(dp286
bg4
(g40
(I-3
tp287
Rp288
(dp289
bg81
g101
g110
g117
g38
tp290
Rp291
(dp292
btp293
Rp294
(dp295
btp296
Rp297
(dp298
bg4
(g288
g180
g65
g10
(g4
(g81
g117
g65
tp299
Rp300
(dp301
bg4
(g81
g110
g117
g65
tp302
Rp303
(dp304
bg4
(g25
g81
g101
g110
g117
g65
tp305
Rp306
(dp307
btp308
Rp309
(dp310
btp311
Rp312
(dp313
bg4
(g42
g81
g91
g110
g38
g65
tp314
Rp315
(dp316
bg4
(g77
g81
g101
g91
g110
g38
g65
tp317
Rp318
(dp319
btp320
Rp321
(dp322
btp323
Rp324
(dp325
baa(lp326
g4
(g7
g74
g10
(g4
(g25
g180
g38
g10
(g4
(g42
g180
g65
g204
tp327
Rp328
(dp329
bg4
(g97
g81
g117
g38
tp330
Rp331
(dp332
bg4
(g97
g81
g110
g117
g38
tp333
Rp334
(dp335
bg4
(g288
g81
g101
g110
g117
g38
tp336
Rp337
(dp338
btp339
Rp340
(dp341
btp342
Rp343
(dp344
bg4
(g97
g180
g65
g309
tp345
Rp346
(dp347
bg4
(g42
g81
g91
g110
g38
g65
tp348
Rp349
(dp350
bg4
(g77
g81
g101
g91
g110
g38
g65
tp351
Rp352
(dp353
btp354
Rp355
(dp356
btp357
Rp358
(dp359
bag276
aaaa(lp360
(lp361
(lp362
g276
ag324
aa(lp363
g358
ag276
aaa(lp364
(lp365
g4
(g7
g74
g10
(g4
(g77
g45
g74
g126
tp366
Rp367
(dp368
bg4
(g132
g81
g91
g110
g68
tp369
Rp370
(dp371
bg153
g4
(g42
g81
g101
g91
g110
g10
(g45
g68
g4
(g42
g68
g159
tp372
Rp373
(dp374
btp375
Rp376
(dp377
btp378
Rp379
(dp380
btp381
Rp382
(dp383
btp384
Rp385
(dp386
bag4
(g7
g74
g10
(g4
(g42
g45
g74
g204
tp387
Rp388
(dp389
bg4
(g235
g180
g38
g309
tp390
Rp391
(dp392
bg4
(g42
g81
g91
g110
g68
tp393
Rp394
(dp395
bg4
(g25
g81
g91
g110
g141
g71
tp396
Rp397
(dp398
bg4
(g264
g81
g101
g91
g110
g219
tp399
Rp400
(dp401
btp402
Rp403
(dp404
btp405
Rp406
(dp407
baa(lp408
g4
(g7
g74
g10
(g4
(g144
g180
g38
g309
tp409
Rp410
(dp411
bg4
(g42
g45
g74
g204
tp412
Rp413
(dp414
bg4
(g42
g81
g91
g110
g68
tp415
Rp416
(dp417
bg4
(g25
g81
g91
g110
g141
g71
tp418
Rp419
(dp420
bg4
(g264
g81
g101
g91
g110
g219
tp421
Rp422
(dp423
btp424
Rp425
(dp426
btp427
Rp428
(dp429
bag385
aaaa.