(lp0
(lp1
csympy.core.mul
Mul
p2
(csympy.core.numbers
Rational
p3
(I-1
I2
tp4
Rp5
(dp6
bcsympy.core.power
Pow
p7
(csympy.core.numbers
Pi
p8
(tRp9
(dp10
bcsympy.core.numbers
NegativeOne
p11
(tRp12
(dp13
btp14
Rp15
(dp16
bg7
(csympy.core.add
Add
p17
(g7
(g17
(csympy.core.symbol
Symbol
p18
(S'obslx'
p19
tp20
Rp21
(dp22
S'_assumptions'
p23
ccopy_reg
_reconstructor
p24
(csympy.core.assumptions
StdFactKB
p25
c__builtin__
dict
p26
(dp27
S'positive'
p28
NsS'zero'
p29
NsS'commutative'
p30
I01
sS'negative'
p31
Nstp32
Rp33
sbg2
(g12
g18
(S'obsrx'
p34
tp35
Rp36
(dp37
g23
g24
(g25
g26
(dp38
g30
I01
stp39
Rp40
sbtp41
Rp42
(dp43
btp44
Rp45
(dp46
bcsympy.core.numbers
Integer
p47
(I2
tp48
Rp49
(dp50
btp51
Rp52
(dp53
bg7
(g17
(g18
(S'obsly'
p54
tp55
Rp56
(dp57
g23
g24
(g25
g26
(dp58
g28
Nsg29
Nsg30
I01
sg31
Nstp59
Rp60
sbg2
(g12
g18
(S'obsry'
p61
tp62
Rp63
(dp64
g23
g24
(g25
g26
(dp65
g30
I01
stp66
Rp67
sbtp68
Rp69
(dp70
btp71
Rp72
(dp73
bg49
tp74
Rp75
(dp76
btp77
Rp78
(dp79
bcsympy.core.numbers
Half
p80
(tRp81
(dp82
btp83
Rp84
(dp85
bg7
(g17
(g7
(g17
(g18
(S'srclx'
p86
tp87
Rp88
(dp89
g23
g24
(g25
g26
(dp90
g30
I01
stp91
Rp92
sbg2
(g12
g18
(S'srcrx'
p93
tp94
Rp95
(dp96
g23
g24
(g25
g26
(dp97
g28
Nsg29
Nsg30
I01
sg31
Nstp98
Rp99
sbtp100
Rp101
(dp102
btp103
Rp104
(dp105
bg49
tp106
Rp107
(dp108
bg7
(g17
(g18
(S'srcly'
p109
tp110
Rp111
(dp112
g23
g24
(g25
g26
(dp113
g30
I01
stp114
Rp115
sbg2
(g12
g18
(S'srcry'
p116
tp117
Rp118
(dp119
g23
g24
(g25
g26
(dp120
g28
Nsg29
Nsg30
I01
sg31
Nstp121
Rp122
sbtp123
Rp124
(dp125
btp126
Rp127
(dp128
bg49
tp129
Rp130
(dp131
btp132
Rp133
(dp134
bg81
tp135
Rp136
(dp137
bg7
(g17
(g7
(g17
(g2
(g21
g17
(g12
g18
(S'obsxhat'
p138
tp139
Rp140
(dp141
g23
g24
(g25
g26
(dp142
g30
I01
stp143
Rp144
sbtp145
Rp146
(dp147
btp148
Rp149
(dp150
bg2
(g95
g18
(S'srcxhat'
p151
tp152
Rp153
(dp154
g23
g24
(g25
g26
(dp155
g30
I01
stp156
Rp157
sbtp158
Rp159
(dp160
bg2
(g12
g36
g140
tp161
Rp162
(dp163
bg2
(g12
g88
g17
(g12
g153
tp164
Rp165
(dp166
btp167
Rp168
(dp169
btp170
Rp171
(dp172
bg49
tp173
Rp174
(dp175
bg7
(g17
(g2
(g56
g146
tp176
Rp177
(dp178
bg2
(g118
g153
tp179
Rp180
(dp181
bg2
(g12
g63
g140
tp182
Rp183
(dp184
bg2
(g12
g111
g165
tp185
Rp186
(dp187
btp188
Rp189
(dp190
bg49
tp191
Rp192
(dp193
btp194
Rp195
(dp196
bg12
tp197
Rp198
(dp199
bg146
g165
g17
(g2
(g49
g198
g17
(g2
(g7
(g78
g5
tp200
Rp201
(dp202
bg45
g189
tp203
Rp204
(dp205
bg2
(g12
g201
g72
g171
tp206
Rp207
(dp208
btp209
Rp210
(dp211
bg17
(g2
(g7
(g133
g5
tp212
Rp213
(dp214
bg104
g189
tp215
Rp216
(dp217
bg2
(g12
g213
g127
g171
tp218
Rp219
(dp220
btp221
Rp222
(dp223
btp224
Rp225
(dp226
bg2
(g12
g201
g213
g45
g104
tp227
Rp228
(dp229
bg2
(g12
g201
g213
g72
g127
tp230
Rp231
(dp232
btp233
Rp234
(dp235
btp236
Rp237
(dp238
bag2
(g81
g153
g15
g84
g136
g198
g146
g234
tp239
Rp240
(dp241
baa(lp242
g2
(g81
g140
g15
g84
g136
g198
g165
g234
tp243
Rp244
(dp245
bag2
(g5
g140
g153
g15
g84
g136
g198
g234
tp246
Rp247
(dp248
baa.