(lp0
(lp1
csympy.core.mul
Mul
p2
(csympy.core.numbers
Rational
p3
(I1
I4
tp4
Rp5
(dp6
bcsympy.core.power
Pow
p7
(csympy.core.add
Add
p8
(g7
(g8
(csympy.core.symbol
Symbol
p9
(S'obslx'
p10
tp11
Rp12
(dp13
S'_assumptions'
p14
ccopy_reg
_reconstructor
p15
(csympy.core.assumptions
StdFactKB
p16
c__builtin__
dict
p17
(dp18
S'real'
p19
NsS'irrational'
p20
NsS'antihermitian'
p21
NsS'nonpositive'
p22
NsS'algebraic'
p23
NsS'hermitian'
p24
NsS'infinite'
p25
NsS'integer'
p26
NsS'imaginary'
p27
NsS'odd'
p28
NsS'even'
p29
NsS'commutative'
p30
I01
sS'zero'
p31
NsS'positive'
p32
NsS'negative'
p33
NsS'nonnegative'
p34
NsS'complex'
p35
NsS'rational'
p36
NsS'finite'
p37
Nstp38
Rp39
sbg2
(csympy.core.numbers
NegativeOne
p40
(tRp41
(dp42
bg9
(S'obsrx'
p43
tp44
Rp45
(dp46
g14
g15
(g16
g17
(dp47
g19
Nsg20
Nsg21
Nsg22
Nsg23
Nsg31
Nsg25
Nsg26
Nsg24
Nsg28
Nsg27
Nsg29
Nsg30
I01
sg32
Nsg33
Nsg34
Nsg35
Nsg36
Nsg37
Nstp48
Rp49
sbtp50
Rp51
(dp52
btp53
Rp54
(dp55
bcsympy.core.numbers
Integer
p56
(I2
tp57
Rp58
(dp59
btp60
Rp61
(dp62
bg7
(g8
(g9
(S'obsly'
p63
tp64
Rp65
(dp66
g14
g15
(g16
g17
(dp67
g19
Nsg20
Nsg21
Nsg22
Nsg23
Nsg31
Nsg25
Nsg26
Nsg24
Nsg28
Nsg27
Nsg29
Nsg30
I01
sg32
Nsg33
Nsg34
Nsg35
Nsg36
Nsg37
Nstp68
Rp69
sbg2
(g41
g9
(S'obsry'
p70
tp71
Rp72
(dp73
g14
g15
(g16
g17
(dp74
g19
Nsg20
Nsg21
Nsg22
Nsg23
Nsg24
Nsg25
Nsg26
Nsg27
Nsg28
Nsg29
Nsg30
I01
sg31
Nsg32
Nsg33
Nsg34
Nsg35
Nsg36
Nsg37
Nstp75
Rp76
sbtp77
Rp78
(dp79
btp80
Rp81
(dp82
bg58
tp83
Rp84
(dp85
btp86
Rp87
(dp88
bcsympy.core.numbers
Half
p89
(tRp90
(dp91
btp92
Rp93
(dp94
bg7
(g8
(g7
(g8
(g9
(S'srclx'
p95
tp96
Rp97
(dp98
g14
g15
(g16
g17
(dp99
g30
I01
stp100
Rp101
sbg2
(g41
g9
(S'srcrx'
p102
tp103
Rp104
(dp105
g14
g15
(g16
g17
(dp106
g19
Nsg20
Nsg21
Nsg22
Nsg23
Nsg31
Nsg25
Nsg24
Nsg27
Nsg30
I01
sg32
Nsg33
Nsg34
Nsg35
Nsg36
Nsg37
Nstp107
Rp108
sbtp109
Rp110
(dp111
btp112
Rp113
(dp114
bg58
tp115
Rp116
(dp117
bg7
(g8
(g9
(S'srcly'
p118
tp119
Rp120
(dp121
g14
g15
(g16
g17
(dp122
g30
I01
stp123
Rp124
sbg2
(g41
g9
(S'srcry'
p125
tp126
Rp127
(dp128
g14
g15
(g16
g17
(dp129
g19
Nsg20
Nsg21
Nsg22
Nsg23
Nsg31
Nsg25
Nsg24
Nsg27
Nsg30
I01
sg32
Nsg33
Nsg34
Nsg35
Nsg36
Nsg37
Nstp130
Rp131
sbtp132
Rp133
(dp134
btp135
Rp136
(dp137
bg58
tp138
Rp139
(dp140
btp141
Rp142
(dp143
bg90
tp144
Rp145
(dp146
bg7
(g8
(g2
(csympy.core.numbers
Pi
p147
(tRp148
(dp149
bg7
(g8
(g2
(g54
csympy.functions.elementary.trigonometric
cos
p150
(g9
(S'theta'
p151
tp152
Rp153
(dp154
g14
g15
(g16
g17
(dp155
S'nonzero'
p156
Nsg19
Nsg30
I01
sg32
Nsg33
Nsg31
Nsg35
Nsg36
Nsg27
Nstp157
Rp158
sbtp159
Rp160
(dp161
btp162
Rp163
(dp164
bg2
(g8
(g45
g110
tp165
Rp166
(dp167
bcsympy.functions.elementary.trigonometric
sin
p168
(g153
tp169
Rp170
(dp171
btp172
Rp173
(dp174
btp175
Rp176
(dp177
bg56
(I4
tp178
Rp179
(dp180
btp181
Rp182
(dp183
btp184
Rp185
(dp186
bg2
(g148
g7
(g8
(g2
(g81
g160
tp187
Rp188
(dp189
bg2
(g8
(g72
g133
tp190
Rp191
(dp192
bg170
tp193
Rp194
(dp195
btp196
Rp197
(dp198
bg179
tp199
Rp200
(dp201
btp202
Rp203
(dp204
bg2
(g58
g148
g7
(g176
g58
tp205
Rp206
(dp207
bg7
(g197
g58
tp208
Rp209
(dp210
btp211
Rp212
(dp213
btp214
Rp215
(dp216
bg41
tp217
Rp218
(dp219
bg8
(g2
(g9
(S'N1'
p220
tp221
Rp222
(dp223
g14
g15
(g16
g17
(dp224
g19
Nsg20
Nsg21
Nsg22
Nsg23
Nsg24
Nsg25
Nsg26
Nsg27
Nsg28
Nsg29
Nsg30
I01
sg31
Nsg32
Nsg33
Nsg34
Nsg35
Nsg36
Nsg37
Nstp225
Rp226
sbg8
(g2
(g56
(I-2
tp227
Rp228
(dp229
bg8
(g2
(g9
(S'n1'
p230
tp231
Rp232
(dp233
g14
g15
(g16
g17
(dp234
g30
I01
sg21
Nsg22
Nsg32
Nsg33
Nsg34
Nsg23
Nsg31
Nsg35
Nsg36
Nsg25
Nsg24
Nsg37
Nsg20
Nstp235
Rp236
sbg8
(g2
(g9
(S'Lp'
p237
tp238
Rp239
(dp240
g14
g15
(g16
g17
(dp241
g19
Nsg20
Nsg21
Nsg22
Nsg23
Nsg24
Nsg25
Nsg26
Nsg27
Nsg28
Nsg29
Nsg30
I01
sg31
Nsg32
Nsg33
Nsg34
Nsg35
Nsg36
Nsg37
Nstp242
Rp243
sbg206
tp244
Rp245
(dp246
bg2
(g41
g239
g209
tp247
Rp248
(dp249
btp250
Rp251
(dp252
btp253
Rp254
(dp255
bg2
(g58
g239
g9
(S'n2'
p256
tp257
Rp258
(dp259
g14
g15
(g16
g17
(dp260
g30
I01
sg21
Nsg22
Nsg32
Nsg33
Nsg34
Nsg23
Nsg24
Nsg35
Nsg36
Nsg25
Nsg37
Nsg31
Nsg20
Nstp261
Rp262
sbg176
g197
tp263
Rp264
(dp265
btp266
Rp267
(dp268
bg160
tp269
Rp270
(dp271
bg2
(g8
(g2
(g232
g8
(g2
(g7
(g239
g58
tp272
Rp273
(dp274
bg206
tp275
Rp276
(dp277
bg2
(g41
g273
g209
tp278
Rp279
(dp280
btp281
Rp282
(dp283
btp284
Rp285
(dp286
bg2
(g58
g258
g273
g176
g197
tp287
Rp288
(dp289
btp290
Rp291
(dp292
bg160
g170
tp293
Rp294
(dp295
btp296
Rp297
(dp298
btp299
Rp300
(dp301
bg2
(g9
(S'N2'
p302
tp303
Rp304
(dp305
g14
g15
(g16
g17
(dp306
g19
Nsg20
Nsg21
Nsg22
Nsg23
Nsg24
Nsg25
Nsg26
Nsg27
Nsg28
Nsg29
Nsg30
I01
sg31
Nsg32
Nsg33
Nsg34
Nsg35
Nsg36
Nsg37
Nstp307
Rp308
sbg8
(g2
(g228
g8
(g2
(g41
g258
g251
tp309
Rp310
(dp311
bg2
(g58
g239
g232
g176
g197
tp312
Rp313
(dp314
btp315
Rp316
(dp317
bg160
tp318
Rp319
(dp320
bg2
(g8
(g2
(g41
g258
g282
tp321
Rp322
(dp323
bg2
(g58
g232
g273
g176
g197
tp324
Rp325
(dp326
btp327
Rp328
(dp329
bg160
g170
tp330
Rp331
(dp332
btp333
Rp334
(dp335
btp336
Rp337
(dp338
btp339
Rp340
(dp341
btp342
Rp343
(dp344
bag2
(g3
(I-1
I4
tp345
Rp346
(dp347
bg93
g145
g218
g8
(g2
(g222
g291
g160
g170
tp348
Rp349
(dp350
bg2
(g304
g328
g160
g170
tp351
Rp352
(dp353
btp354
Rp355
(dp356
btp357
Rp358
(dp359
baa(lp360
g2
(g3
(I-1
I8
tp361
Rp362
(dp363
bg93
g145
g7
(g8
(g2
(g148
g7
(g176
g56
(I6
tp364
Rp365
(dp366
btp367
Rp368
(dp369
btp370
Rp371
(dp372
bg2
(g148
g7
(g197
g365
tp373
Rp374
(dp375
btp376
Rp377
(dp378
bg2
(g41
g7
(g222
g58
tp379
Rp380
(dp381
bg8
(g371
g2
(g148
g206
g200
tp382
Rp383
(dp384
bg2
(g58
g148
g182
g209
tp385
Rp386
(dp387
btp388
Rp389
(dp390
btp391
Rp392
(dp393
bg2
(g41
g7
(g304
g58
tp394
Rp395
(dp396
bg8
(g377
g2
(g148
g182
g209
tp397
Rp398
(dp399
bg2
(g58
g148
g206
g200
tp400
Rp401
(dp402
btp403
Rp404
(dp405
btp406
Rp407
(dp408
bg2
(g228
g222
g304
g8
(g2
(g148
g7
(g176
g56
(I5
tp409
Rp410
(dp411
btp412
Rp413
(dp414
bg197
tp415
Rp416
(dp417
bg2
(g148
g7
(g197
g410
tp418
Rp419
(dp420
bg176
tp421
Rp422
(dp423
bg2
(g58
g148
g7
(g176
g56
(I3
tp424
Rp425
(dp426
btp427
Rp428
(dp429
bg7
(g197
g425
tp430
Rp431
(dp432
btp433
Rp434
(dp435
btp436
Rp437
(dp438
btp439
Rp440
(dp441
bg2
(g425
g148
g206
g200
tp442
Rp443
(dp444
bg2
(g425
g148
g182
g209
tp445
Rp446
(dp447
btp448
Rp449
(dp450
bg41
tp451
Rp452
(dp453
bg8
(g2
(g41
g7
(g8
(g2
(g179
g206
tp454
Rp455
(dp456
bg2
(g179
g209
tp457
Rp458
(dp459
bg2
(g56
(I-4
tp460
Rp461
(dp462
bg380
g206
tp463
Rp464
(dp465
bg2
(g461
g395
g209
tp466
Rp467
(dp468
bg2
(g56
(I-8
tp469
Rp470
(dp471
bg222
g304
g176
g197
tp472
Rp473
(dp474
btp475
Rp476
(dp477
bg90
tp478
Rp479
(dp480
bg8
(g2
(g380
g8
(g2
(g232
g8
(g2
(g148
g428
tp481
Rp482
(dp483
bg2
(g41
g148
g209
g176
tp484
Rp485
(dp486
btp487
Rp488
(dp489
btp490
Rp491
(dp492
bg2
(g58
g148
g258
g206
g197
tp493
Rp494
(dp495
btp496
Rp497
(dp498
btp499
Rp500
(dp501
bg2
(g395
g8
(g2
(g41
g258
g8
(g2
(g41
g148
g431
tp502
Rp503
(dp504
bg2
(g148
g206
g197
tp505
Rp506
(dp507
btp508
Rp509
(dp510
btp511
Rp512
(dp513
bg2
(g58
g148
g232
g209
g176
tp514
Rp515
(dp516
btp517
Rp518
(dp519
btp520
Rp521
(dp522
bg2
(g41
g232
g8
(g482
g2
(g148
g209
g176
tp523
Rp524
(dp525
btp526
Rp527
(dp528
btp529
Rp530
(dp531
bg2
(g41
g258
g8
(g2
(g148
g431
tp532
Rp533
(dp534
bg506
tp535
Rp536
(dp537
btp538
Rp539
(dp540
bg2
(g228
g8
(g2
(g380
g8
(g2
(g232
g8
(g428
g2
(g41
g209
g176
tp541
Rp542
(dp543
btp544
Rp545
(dp546
btp547
Rp548
(dp549
bg2
(g58
g258
g206
g197
tp550
Rp551
(dp552
btp553
Rp554
(dp555
btp556
Rp557
(dp558
bg2
(g395
g8
(g2
(g41
g258
g8
(g2
(g41
g431
tp559
Rp560
(dp561
bg2
(g206
g197
tp562
Rp563
(dp564
btp565
Rp566
(dp567
btp568
Rp569
(dp570
bg2
(g58
g232
g209
g176
tp571
Rp572
(dp573
btp574
Rp575
(dp576
btp577
Rp578
(dp579
bg2
(g41
g232
g8
(g428
g2
(g209
g176
tp580
Rp581
(dp582
btp583
Rp584
(dp585
btp586
Rp587
(dp588
bg2
(g41
g258
g8
(g431
g563
tp589
Rp590
(dp591
btp592
Rp593
(dp594
bg2
(g222
g304
g8
(g2
(g232
g8
(g560
g2
(g425
g206
g197
tp595
Rp596
(dp597
btp598
Rp599
(dp600
btp601
Rp602
(dp603
bg2
(g41
g258
g8
(g428
g2
(g56
(I-3
tp604
Rp605
(dp606
bg209
g176
tp607
Rp608
(dp609
btp610
Rp611
(dp612
btp613
Rp614
(dp615
btp616
Rp617
(dp618
btp619
Rp620
(dp621
btp622
Rp623
(dp624
bcsympy.functions.elementary.trigonometric
atan
p625
(g2
(g58
g7
(g476
g3
(I-1
I2
tp626
Rp627
(dp628
btp629
Rp630
(dp631
bg8
(g2
(g222
g176
tp632
Rp633
(dp634
bg2
(g304
g197
tp635
Rp636
(dp637
btp638
Rp639
(dp640
btp641
Rp642
(dp643
btp644
Rp645
(dp646
btp647
Rp648
(dp649
bg2
(g222
g304
g8
(g2
(g232
g8
(g2
(g41
g148
g431
tp650
Rp651
(dp652
bg2
(g425
g148
g206
g197
tp653
Rp654
(dp655
btp656
Rp657
(dp658
btp659
Rp660
(dp661
bg2
(g41
g258
g8
(g482
g2
(g605
g148
g209
g176
tp662
Rp663
(dp664
btp665
Rp666
(dp667
btp668
Rp669
(dp670
btp671
Rp672
(dp673
btp674
Rp675
(dp676
btp677
Rp678
(dp679
btp680
Rp681
(dp682
bg2
(g228
g222
g8
(g2
(g232
g8
(g2
(g228
g200
tp683
Rp684
(dp685
bg2
(g58
g182
tp686
Rp687
(dp688
bg2
(g41
g8
(g182
g2
(g41
g200
tp689
Rp690
(dp691
btp692
Rp693
(dp694
bcsympy.functions.elementary.exponential
log
p695
(g8
(g276
g2
(g273
g209
tp696
Rp697
(dp698
btp699
Rp700
(dp701
btp702
Rp703
(dp704
btp705
Rp706
(dp707
btp708
Rp709
(dp710
btp711
Rp712
(dp713
bg2
(g8
(g2
(g41
g8
(g2
(g232
g8
(g2
(g273
g182
tp714
Rp715
(dp716
bg2
(g41
g273
g200
tp717
Rp718
(dp719
btp720
Rp721
(dp722
btp723
Rp724
(dp725
bg2
(g58
g258
g8
(g2
(g273
g428
g197
tp726
Rp727
(dp728
bg2
(g273
g431
g176
tp729
Rp730
(dp731
btp732
Rp733
(dp734
btp735
Rp736
(dp737
btp738
Rp739
(dp740
bg160
tp741
Rp742
(dp743
bg2
(g58
g232
g8
(g2
(g239
g182
tp744
Rp745
(dp746
bg2
(g41
g239
g200
tp747
Rp748
(dp749
btp750
Rp751
(dp752
btp753
Rp754
(dp755
bg2
(g179
g258
g8
(g2
(g239
g428
g197
tp756
Rp757
(dp758
bg2
(g239
g431
g176
tp759
Rp760
(dp761
btp762
Rp763
(dp764
btp765
Rp766
(dp767
btp768
Rp769
(dp770
bg170
tp771
Rp772
(dp773
bg2
(g58
g258
g8
(g2
(g41
g8
(g2
(g428
g197
tp774
Rp775
(dp776
bg2
(g431
g176
tp777
Rp778
(dp779
btp780
Rp781
(dp782
bg703
tp783
Rp784
(dp785
bg2
(g58
g428
g197
tp786
Rp787
(dp788
bg2
(g58
g431
g176
tp789
Rp790
(dp791
btp792
Rp793
(dp794
btp795
Rp796
(dp797
bg2
(g58
g8
(g2
(g232
g751
tp798
Rp799
(dp800
bg2
(g58
g258
g763
tp801
Rp802
(dp803
btp804
Rp805
(dp806
bg160
tp807
Rp808
(dp809
btp810
Rp811
(dp812
btp813
Rp814
(dp815
bg2
(g228
g7
(g304
g425
tp816
Rp817
(dp818
bg8
(g2
(g258
g8
(g684
g2
(g41
g8
(g690
g2
(g206
g209
tp819
Rp820
(dp821
btp822
Rp823
(dp824
bg703
tp825
Rp826
(dp827
bg2
(g58
g206
g209
tp828
Rp829
(dp830
btp831
Rp832
(dp833
btp834
Rp835
(dp836
bg2
(g41
g8
(g2
(g41
g8
(g2
(g41
g258
g8
(g2
(g41
g273
g200
tp837
Rp838
(dp839
bg2
(g273
g206
g209
tp840
Rp841
(dp842
btp843
Rp844
(dp845
btp846
Rp847
(dp848
bg2
(g58
g232
g273
g431
g176
tp849
Rp850
(dp851
btp852
Rp853
(dp854
bg160
tp855
Rp856
(dp857
bg2
(g228
g258
g8
(g2
(g41
g239
g200
tp858
Rp859
(dp860
bg2
(g239
g206
g209
tp861
Rp862
(dp863
btp864
Rp865
(dp866
btp867
Rp868
(dp869
bg2
(g179
g239
g232
g431
g176
tp870
Rp871
(dp872
btp873
Rp874
(dp875
bg170
tp876
Rp877
(dp878
bg2
(g228
g8
(g2
(g41
g258
g865
tp879
Rp880
(dp881
bg2
(g58
g239
g232
g431
g176
tp882
Rp883
(dp884
btp885
Rp886
(dp887
bg160
tp888
Rp889
(dp890
bg2
(g58
g232
g8
(g2
(g228
g431
g176
tp891
Rp892
(dp893
bg2
(g431
g176
g703
tp894
Rp895
(dp896
btp897
Rp898
(dp899
btp900
Rp901
(dp902
btp903
Rp904
(dp905
btp906
Rp907
(dp908
bg2
(g58
g304
g8
(g2
(g258
g709
tp909
Rp910
(dp911
bg2
(g380
g8
(g2
(g8
(g2
(g41
g8
(g2
(g41
g258
g8
(g715
g2
(g56
(I-5
tp912
Rp913
(dp914
bg273
g206
g209
tp915
Rp916
(dp917
btp918
Rp919
(dp920
btp921
Rp922
(dp923
bg2
(g58
g232
g8
(g2
(g41
g273
g431
g176
tp924
Rp925
(dp926
bg2
(g58
g273
g428
g197
tp927
Rp928
(dp929
btp930
Rp931
(dp932
btp933
Rp934
(dp935
btp936
Rp937
(dp938
bg160
tp939
Rp940
(dp941
bg2
(g228
g258
g8
(g745
g2
(g913
g239
g206
g209
tp942
Rp943
(dp944
btp945
Rp946
(dp947
btp948
Rp949
(dp950
bg2
(g179
g232
g8
(g2
(g41
g239
g431
g176
tp951
Rp952
(dp953
bg2
(g58
g239
g428
g197
tp954
Rp955
(dp956
btp957
Rp958
(dp959
btp960
Rp961
(dp962
btp963
Rp964
(dp965
bg170
tp966
Rp967
(dp968
bg2
(g41
g258
g8
(g687
g2
(g41
g8
(g182
g2
(g913
g206
g209
tp969
Rp970
(dp971
btp972
Rp973
(dp974
bg703
tp975
Rp976
(dp977
bg2
(g56
(I-10
tp978
Rp979
(dp980
bg206
g209
tp981
Rp982
(dp983
btp984
Rp985
(dp986
btp987
Rp988
(dp989
bg2
(g58
g232
g8
(g2
(g41
g8
(g2
(g41
g431
g176
tp990
Rp991
(dp992
bg2
(g58
g428
g197
tp993
Rp994
(dp995
btp996
Rp997
(dp998
bg703
tp999
Rp1000
(dp1001
bg2
(g228
g431
g176
tp1002
Rp1003
(dp1004
bg2
(g179
g428
g197
tp1005
Rp1006
(dp1007
btp1008
Rp1009
(dp1010
btp1011
Rp1012
(dp1013
bg2
(g58
g8
(g2
(g41
g258
g946
tp1014
Rp1015
(dp1016
bg2
(g58
g232
g958
tp1017
Rp1018
(dp1019
btp1020
Rp1021
(dp1022
bg160
tp1023
Rp1024
(dp1025
btp1026
Rp1027
(dp1028
btp1029
Rp1030
(dp1031
bg2
(g41
g8
(g2
(g41
g8
(g2
(g41
g258
g721
tp1032
Rp1033
(dp1034
bg2
(g58
g232
g733
tp1035
Rp1036
(dp1037
btp1038
Rp1039
(dp1040
bg160
tp1041
Rp1042
(dp1043
bg2
(g228
g258
g751
tp1044
Rp1045
(dp1046
bg2
(g179
g232
g763
tp1047
Rp1048
(dp1049
btp1050
Rp1051
(dp1052
bg170
tp1053
Rp1054
(dp1055
bg2
(g228
g232
g793
tp1056
Rp1057
(dp1058
bg2
(g228
g8
(g2
(g41
g258
g751
tp1059
Rp1060
(dp1061
bg2
(g58
g232
g763
tp1062
Rp1063
(dp1064
btp1065
Rp1066
(dp1067
bg160
tp1068
Rp1069
(dp1070
btp1071
Rp1072
(dp1073
btp1074
Rp1075
(dp1076
bg2
(g58
g7
(g222
g425
tp1077
Rp1078
(dp1079
bg8
(g2
(g232
g8
(g687
g2
(g41
g8
(g182
g2
(g41
g206
g209
tp1080
Rp1081
(dp1082
btp1083
Rp1084
(dp1085
bg703
tp1086
Rp1087
(dp1088
bg2
(g228
g206
g209
tp1089
Rp1090
(dp1091
btp1092
Rp1093
(dp1094
btp1095
Rp1096
(dp1097
bg2
(g8
(g2
(g41
g8
(g2
(g232
g8
(g715
g2
(g41
g273
g206
g209
tp1098
Rp1099
(dp1100
btp1101
Rp1102
(dp1103
btp1104
Rp1105
(dp1106
bg2
(g58
g258
g273
g428
g197
tp1107
Rp1108
(dp1109
btp1110
Rp1111
(dp1112
bg160
tp1113
Rp1114
(dp1115
bg2
(g58
g232
g8
(g745
g2
(g41
g239
g206
g209
tp1116
Rp1117
(dp1118
btp1119
Rp1120
(dp1121
btp1122
Rp1123
(dp1124
bg2
(g179
g239
g258
g428
g197
tp1125
Rp1126
(dp1127
btp1128
Rp1129
(dp1130
bg170
tp1131
Rp1132
(dp1133
bg2
(g228
g258
g8
(g2
(g228
g428
g197
tp1134
Rp1135
(dp1136
bg2
(g428
g197
g703
tp1137
Rp1138
(dp1139
btp1140
Rp1141
(dp1142
btp1143
Rp1144
(dp1145
bg2
(g58
g8
(g2
(g232
g1120
tp1146
Rp1147
(dp1148
bg2
(g58
g239
g258
g428
g197
tp1149
Rp1150
(dp1151
btp1152
Rp1153
(dp1154
bg160
tp1155
Rp1156
(dp1157
btp1158
Rp1159
(dp1160
btp1161
Rp1162
(dp1163
bg2
(g58
g222
g395
g8
(g2
(g232
g8
(g684
g2
(g41
g8
(g690
g2
(g410
g206
g209
tp1164
Rp1165
(dp1166
btp1167
Rp1168
(dp1169
bg703
tp1170
Rp1171
(dp1172
bg2
(g56
(I10
tp1173
Rp1174
(dp1175
bg206
g209
tp1176
Rp1177
(dp1178
btp1179
Rp1180
(dp1181
btp1182
Rp1183
(dp1184
bg2
(g8
(g2
(g41
g8
(g2
(g232
g8
(g2
(g41
g273
g200
tp1185
Rp1186
(dp1187
bg2
(g410
g273
g206
g209
tp1188
Rp1189
(dp1190
btp1191
Rp1192
(dp1193
btp1194
Rp1195
(dp1196
bg2
(g228
g258
g8
(g727
g2
(g228
g273
g431
g176
tp1197
Rp1198
(dp1199
btp1200
Rp1201
(dp1202
btp1203
Rp1204
(dp1205
btp1206
Rp1207
(dp1208
bg160
tp1209
Rp1210
(dp1211
bg2
(g461
g258
g8
(g757
g2
(g228
g239
g431
g176
tp1212
Rp1213
(dp1214
btp1215
Rp1216
(dp1217
btp1218
Rp1219
(dp1220
bg2
(g58
g232
g8
(g2
(g41
g239
g200
tp1221
Rp1222
(dp1223
bg2
(g410
g239
g206
g209
tp1224
Rp1225
(dp1226
btp1227
Rp1228
(dp1229
btp1230
Rp1231
(dp1232
btp1233
Rp1234
(dp1235
bg170
tp1236
Rp1237
(dp1238
bg2
(g228
g258
g8
(g2
(g41
g8
(g775
g2
(g228
g431
g176
tp1239
Rp1240
(dp1241
btp1242
Rp1243
(dp1244
bg703
tp1245
Rp1246
(dp1247
bg2
(g461
g431
g176
tp1248
Rp1249
(dp1250
bg2
(g58
g428
g197
tp1251
Rp1252
(dp1253
btp1254
Rp1255
(dp1256
btp1257
Rp1258
(dp1259
bg2
(g58
g8
(g2
(g232
g1228
tp1260
Rp1261
(dp1262
bg2
(g228
g258
g1216
tp1263
Rp1264
(dp1265
btp1266
Rp1267
(dp1268
bg160
tp1269
Rp1270
(dp1271
btp1272
Rp1273
(dp1274
btp1275
Rp1276
(dp1277
btp1278
Rp1279
(dp1280
btp1281
Rp1282
(dp1283
bag2
(g346
g93
g145
g218
g8
(g2
(g222
g8
(g2
(g41
g291
g160
tp1284
Rp1285
(dp1286
bg2
(g58
g232
g251
tp1287
Rp1288
(dp1289
bg2
(g179
g239
g258
g176
g197
tp1290
Rp1291
(dp1292
btp1293
Rp1294
(dp1295
bg170
tp1296
Rp1297
(dp1298
bg2
(g304
g8
(g2
(g41
g328
g160
tp1299
Rp1300
(dp1301
bg2
(g228
g258
g251
tp1302
Rp1303
(dp1304
bg2
(g179
g239
g232
g176
g197
tp1305
Rp1306
(dp1307
btp1308
Rp1309
(dp1310
bg170
tp1311
Rp1312
(dp1313
btp1314
Rp1315
(dp1316
btp1317
Rp1318
(dp1319
baa.